---
triple:          'x86_64-apple-darwin'
binary-path:     '/Users/sachinkaul/Desktop/CS149_C_programs/CS_149_OS_Project/ProcessManager'
relocations:
  - { offsetInCU: 0x5802, offset: 0x5802, size: 0x8, addend: 0x0, symName: __ZNSt3__124__put_character_sequenceB7v160006IcNS_11char_traitsIcEEEERNS_13basic_ostreamIT_T0_EES7_PKS4_m, symObjAddr: 0x4F50, symBinAddr: 0x1000092A0, symSize: 0x1F0 }
  - { offsetInCU: 0x83FE, offset: 0x83FE, size: 0x8, addend: 0x0, symName: __ZNSt3__17advanceB7v160006IP11InstructionmmvEEvRT_T0_, symObjAddr: 0xB960, symBinAddr: 0x10000FCB0, symSize: 0x50 }
  - { offsetInCU: 0x966B, offset: 0x966B, size: 0x8, addend: 0x0, symName: __ZNSt3__1lsB7v160006INS_11char_traitsIcEEEERNS_13basic_ostreamIcT_EES6_PKc, symObjAddr: 0x500, symBinAddr: 0x100004850, symSize: 0x40 }
  - { offsetInCU: 0x96B1, offset: 0x96B1, size: 0x8, addend: 0x0, symName: __ZNSt3__14endlB7v160006IcNS_11char_traitsIcEEEERNS_13basic_ostreamIT_T0_EES7_, symObjAddr: 0x560, symBinAddr: 0x1000048B0, symSize: 0x50 }
  - { offsetInCU: 0x98A0, offset: 0x98A0, size: 0x8, addend: 0x0, symName: __ZNSt3__1neB7v160006IP11InstructionEEbRKNS_11__wrap_iterIT_EES7_, symObjAddr: 0x6C0, symBinAddr: 0x100004A10, symSize: 0x30 }
  - { offsetInCU: 0x98E3, offset: 0x98E3, size: 0x8, addend: 0x0, symName: __ZNSt3__1lsB7v160006INS_11char_traitsIcEEEERNS_13basic_ostreamIcT_EES6_c, symObjAddr: 0x740, symBinAddr: 0x100004A90, symSize: 0x30 }
  - { offsetInCU: 0x9929, offset: 0x9929, size: 0x8, addend: 0x0, symName: __ZNSt3__1lsB7v160006IcNS_11char_traitsIcEENS_9allocatorIcEEEERNS_13basic_ostreamIT_T0_EES9_RKNS_12basic_stringIS6_S7_T1_EE, symObjAddr: 0x17C0, symBinAddr: 0x100005B10, symSize: 0x50 }
  - { offsetInCU: 0xA729, offset: 0xA729, size: 0x8, addend: 0x0, symName: __ZNSt3__17getlineB7v160006IcNS_11char_traitsIcEENS_9allocatorIcEEEERNS_13basic_istreamIT_T0_EES9_RNS_12basic_stringIS6_S7_T1_EE, symObjAddr: 0x2710, symBinAddr: 0x100006A60, symSize: 0x50 }
  - { offsetInCU: 0xAB87, offset: 0xAB87, size: 0x8, addend: 0x0, symName: __ZNSt3__1neB7v160006ERKNS_16__deque_iteratorIiPiRiPS1_lLl1024EEES6_, symObjAddr: 0x2FB0, symBinAddr: 0x100007300, symSize: 0x30 }
  - { offsetInCU: 0xABC4, offset: 0xABC4, size: 0x8, addend: 0x0, symName: __ZNSt3__1eqB7v160006ERKNS_16__deque_iteratorIiPiRiPS1_lLl1024EEES6_, symObjAddr: 0x3210, symBinAddr: 0x100007560, symSize: 0x30 }
  - { offsetInCU: 0xAC01, offset: 0xAC01, size: 0x8, addend: 0x0, symName: __ZNSt3__130__libcpp_is_constant_evaluatedB7v160006Ev, symObjAddr: 0x3340, symBinAddr: 0x100007690, symSize: 0x10 }
  - { offsetInCU: 0xAC1E, offset: 0xAC1E, size: 0x8, addend: 0x0, symName: __ZNSt3__119__libcpp_deallocateB7v160006EPvmm, symObjAddr: 0x3350, symBinAddr: 0x1000076A0, symSize: 0x30 }
  - { offsetInCU: 0xAC66, offset: 0xAC66, size: 0x8, addend: 0x0, symName: __ZNSt3__127__do_deallocate_handle_sizeB7v160006IJEEEvPvmDpT_, symObjAddr: 0x3380, symBinAddr: 0x1000076D0, symSize: 0x20 }
  - { offsetInCU: 0xACA4, offset: 0xACA4, size: 0x8, addend: 0x0, symName: __ZNSt3__124__libcpp_operator_deleteB7v160006IJPvEEEvDpT_, symObjAddr: 0x33A0, symBinAddr: 0x1000076F0, symSize: 0x20 }
  - { offsetInCU: 0xACD9, offset: 0xACD9, size: 0x8, addend: 0x0, symName: __ZNSt3__112__to_addressB7v160006IPiEEPT_S3_, symObjAddr: 0x35D0, symBinAddr: 0x100007920, symSize: 0x10 }
  - { offsetInCU: 0xAD0E, offset: 0xAD0E, size: 0x8, addend: 0x0, symName: __ZNSt3__122__make_exception_guardB7v160006INS_6vectorI11InstructionNS_9allocatorIS2_EEE16__destroy_vectorEEENS_28__exception_guard_exceptionsIT_EES8_, symObjAddr: 0x38E0, symBinAddr: 0x100007C30, symSize: 0x40 }
  - { offsetInCU: 0xAD43, offset: 0xAD43, size: 0x8, addend: 0x0, symName: __ZNSt3__119__debug_db_insert_cB7v160006INS_6vectorI11InstructionNS_9allocatorIS2_EEEEEEvPT_, symObjAddr: 0x3950, symBinAddr: 0x100007CA0, symSize: 0x10 }
  - { offsetInCU: 0xAD74, offset: 0xAD74, size: 0x8, addend: 0x0, symName: __ZNSt3__119__allocate_at_leastB7v160006INS_9allocatorI11InstructionEEEENS_19__allocation_resultINS_16allocator_traitsIT_E7pointerEEERS6_m, symObjAddr: 0x3C80, symBinAddr: 0x100007FD0, symSize: 0x40 }
  - { offsetInCU: 0xADB7, offset: 0xADB7, size: 0x8, addend: 0x0, symName: __ZNSt3__13minB7v160006ImEERKT_S3_S3_, symObjAddr: 0x3DB0, symBinAddr: 0x100008100, symSize: 0x30 }
  - { offsetInCU: 0xAFFB, offset: 0xAFFB, size: 0x8, addend: 0x0, symName: __ZNSt3__13minB7v160006ImNS_6__lessImmEEEERKT_S5_S5_T0_, symObjAddr: 0x3E10, symBinAddr: 0x100008160, symSize: 0x50 }
  - { offsetInCU: 0xB090, offset: 0xB090, size: 0x8, addend: 0x0, symName: __ZNSt3__120__throw_length_errorB7v160006EPKc, symObjAddr: 0x3EC0, symBinAddr: 0x100008210, symSize: 0x70 }
  - { offsetInCU: 0xB0B8, offset: 0xB0B8, size: 0x8, addend: 0x0, symName: __ZNSt3__117__libcpp_allocateB7v160006Emm, symObjAddr: 0x4060, symBinAddr: 0x1000083B0, symSize: 0x20 }
  - { offsetInCU: 0xB0F5, offset: 0xB0F5, size: 0x8, addend: 0x0, symName: __ZNSt3__121__libcpp_operator_newB7v160006IJmEEEPvDpT_, symObjAddr: 0x4080, symBinAddr: 0x1000083D0, symSize: 0x20 }
  - { offsetInCU: 0xB12E, offset: 0xB12E, size: 0x8, addend: 0x0, symName: __ZNSt3__112__to_addressB7v160006I11InstructionEEPT_S3_, symObjAddr: 0x4170, symBinAddr: 0x1000084C0, symSize: 0x10 }
  - { offsetInCU: 0xB163, offset: 0xB163, size: 0x8, addend: 0x0, symName: __ZNSt3__130__uninitialized_allocator_copyB7v160006INS_9allocatorI11InstructionEEPS2_S4_S4_EET2_RT_T0_T1_S5_, symObjAddr: 0x4200, symBinAddr: 0x100008550, symSize: 0x110 }
  - { offsetInCU: 0xB201, offset: 0xB201, size: 0x8, addend: 0x0, symName: __ZNSt3__122__make_exception_guardB7v160006INS_29_AllocatorDestroyRangeReverseINS_9allocatorI11InstructionEEPS3_EEEENS_28__exception_guard_exceptionsIT_EES8_, symObjAddr: 0x4370, symBinAddr: 0x1000086C0, symSize: 0x60 }
  - { offsetInCU: 0xB236, offset: 0xB236, size: 0x8, addend: 0x0, symName: __ZNSt3__119__allocator_destroyB7v160006INS_9allocatorI11InstructionEENS_16reverse_iteratorIPS2_EES6_EEvRT_T0_T1_, symObjAddr: 0x45F0, symBinAddr: 0x100008940, symSize: 0x70 }
  - { offsetInCU: 0xB299, offset: 0xB299, size: 0x8, addend: 0x0, symName: __ZNSt3__1neB7v160006IP11InstructionS2_EEbRKNS_16reverse_iteratorIT_EERKNS3_IT0_EE, symObjAddr: 0x4690, symBinAddr: 0x1000089E0, symSize: 0x40 }
  - { offsetInCU: 0xB2E5, offset: 0xB2E5, size: 0x8, addend: 0x0, symName: __ZNSt3__112__to_addressB7v160006INS_16reverse_iteratorIP11InstructionEEvEENS_5decayIDTclsr19__to_address_helperIT_EE6__callclsr3stdE7declvalIRKS6_EEEEE4typeES8_, symObjAddr: 0x4700, symBinAddr: 0x100008A50, symSize: 0x20 }
  - { offsetInCU: 0xB344, offset: 0xB344, size: 0x8, addend: 0x0, symName: __ZNSt3__118__debug_db_erase_cB7v160006INS_6vectorI11InstructionNS_9allocatorIS2_EEEEEEvPT_, symObjAddr: 0x49E0, symBinAddr: 0x100008D30, symSize: 0x10 }
  - { offsetInCU: 0xB375, offset: 0xB375, size: 0x8, addend: 0x0, symName: __ZNSt3__116__pad_and_outputB7v160006IcNS_11char_traitsIcEEEENS_19ostreambuf_iteratorIT_T0_EES6_PKS4_S8_S8_RNS_8ios_baseES4_, symObjAddr: 0x51A0, symBinAddr: 0x1000094F0, symSize: 0x220 }
  - { offsetInCU: 0xB445, offset: 0xB445, size: 0x8, addend: 0x0, symName: __ZNSt3__119__debug_db_insert_cB7v160006INS_12basic_stringIcNS_11char_traitsIcEENS_9allocatorIcEEEEEEvPT_, symObjAddr: 0x5630, symBinAddr: 0x100009980, symSize: 0x10 }
  - { offsetInCU: 0xB476, offset: 0xB476, size: 0x8, addend: 0x0, symName: __ZNSt3__112__to_addressB7v160006IKcEEPT_S3_, symObjAddr: 0x56D0, symBinAddr: 0x100009A20, symSize: 0x10 }
  - { offsetInCU: 0xB4DE, offset: 0xB4DE, size: 0x8, addend: 0x0, symName: __ZNSt3__19use_facetB7v160006INS_5ctypeIcEEEERKT_RKNS_6localeE, symObjAddr: 0x5980, symBinAddr: 0x100009CD0, symSize: 0x30 }
  - { offsetInCU: 0xB9AD, offset: 0xB9AD, size: 0x8, addend: 0x0, symName: __ZNSt3__118__constexpr_strlenB7v160006EPKc, symObjAddr: 0x5A10, symBinAddr: 0x100009D60, symSize: 0x20 }
  - { offsetInCU: 0xB9F5, offset: 0xB9F5, size: 0x8, addend: 0x0, symName: __ZNSt3__1miB7v160006ERKNS_16__deque_iteratorIiPKiRS1_PKS2_lLl1024EEES8_, symObjAddr: 0x6130, symBinAddr: 0x10000A480, symSize: 0xA0 }
  - { offsetInCU: 0xBA32, offset: 0xBA32, size: 0x8, addend: 0x0, symName: __ZNSt3__14copyB7v160006INS_16__deque_iteratorIiPKiRS2_PKS3_lLl1024EEENS1_IiPiRiPS8_lLl1024EEEEET0_T_SD_SC_, symObjAddr: 0x6210, symBinAddr: 0x10000A560, symSize: 0x80 }
  - { offsetInCU: 0xBA8C, offset: 0xBA8C, size: 0x8, addend: 0x0, symName: __ZNSt3__1neB7v160006ERKNS_16__deque_iteratorIiPKiRS1_PKS2_lLl1024EEES8_, symObjAddr: 0x66C0, symBinAddr: 0x10000AA10, symSize: 0x30 }
  - { offsetInCU: 0xBAC9, offset: 0xBAC9, size: 0x8, addend: 0x0, symName: __ZNSt3__1eqB7v160006ERKNS_16__deque_iteratorIiPKiRS1_PKS2_lLl1024EEES8_, symObjAddr: 0x66F0, symBinAddr: 0x10000AA40, symSize: 0x30 }
  - { offsetInCU: 0xBB06, offset: 0xBB06, size: 0x8, addend: 0x0, symName: __ZNSt3__16__copyB7v160006INS_17_ClassicAlgPolicyENS_16__deque_iteratorIiPKiRS3_PKS4_lLl1024EEES8_NS2_IiPiRiPS9_lLl1024EEEEENS_4pairIT0_T2_EESE_T1_SF_, symObjAddr: 0x6820, symBinAddr: 0x10000AB70, symSize: 0x90 }
  - { offsetInCU: 0xBB72, offset: 0xBB72, size: 0x8, addend: 0x0, symName: __ZNSt3__123__dispatch_copy_or_moveB7v160006INS_17_ClassicAlgPolicyENS_11__copy_loopIS1_EENS_14__copy_trivialENS_16__deque_iteratorIiPKiRS6_PKS7_lLl1024EEESB_NS5_IiPiRiPSC_lLl1024EEEEENS_4pairIT2_T4_EESH_T3_SI_, symObjAddr: 0x68B0, symBinAddr: 0x10000AC00, symSize: 0xB0 }
  - { offsetInCU: 0xBBF0, offset: 0xBBF0, size: 0x8, addend: 0x0, symName: __ZNSt3__121__unwrap_and_dispatchB7v160006INS_10__overloadINS_11__copy_loopINS_17_ClassicAlgPolicyEEENS_14__copy_trivialEEENS_16__deque_iteratorIiPKiRS8_PKS9_lLl1024EEESD_NS7_IiPiRiPSE_lLl1024EEELi0EEENS_4pairIT0_T2_EESJ_T1_SK_, symObjAddr: 0x6960, symBinAddr: 0x10000ACB0, symSize: 0x210 }
  - { offsetInCU: 0xBC7F, offset: 0xBC7F, size: 0x8, addend: 0x0, symName: __ZNSt3__114__unwrap_rangeB7v160006INS_16__deque_iteratorIiPKiRS2_PKS3_lLl1024EEES7_EENS_4pairIT0_S9_EET_SB_, symObjAddr: 0x6B70, symBinAddr: 0x10000AEC0, symSize: 0x90 }
  - { offsetInCU: 0xBE4B, offset: 0xBE4B, size: 0x8, addend: 0x0, symName: __ZNSt3__113__unwrap_iterB7v160006INS_16__deque_iteratorIiPiRiPS2_lLl1024EEENS_18__unwrap_iter_implIS5_Lb0EEELi0EEEDTclsrT0_8__unwrapclsr3stdE7declvalIT_EEEES9_, symObjAddr: 0x6F20, symBinAddr: 0x10000B270, symSize: 0x40 }
  - { offsetInCU: 0xBE8F, offset: 0xBE8F, size: 0x8, addend: 0x0, symName: __ZNSt3__19make_pairB7v160006INS_16__deque_iteratorIiPKiRS2_PKS3_lLl1024EEENS1_IiPiRiPS8_lLl1024EEEEENS_4pairINS_18__unwrap_ref_decayIT_E4typeENSD_IT0_E4typeEEEOSE_OSH_, symObjAddr: 0x6F60, symBinAddr: 0x10000B2B0, symSize: 0x30 }
  - { offsetInCU: 0xBEDE, offset: 0xBEDE, size: 0x8, addend: 0x0, symName: __ZNSt3__114__rewrap_rangeB7v160006INS_16__deque_iteratorIiPKiRS2_PKS3_lLl1024EEES7_EET_S8_T0_, symObjAddr: 0x6F90, symBinAddr: 0x10000B2E0, symSize: 0x60 }
  - { offsetInCU: 0xBF2A, offset: 0xBF2A, size: 0x8, addend: 0x0, symName: __ZNSt3__113__rewrap_iterB7v160006INS_16__deque_iteratorIiPiRiPS2_lLl1024EEES5_NS_18__unwrap_iter_implIS5_Lb0EEEEET_S8_T0_, symObjAddr: 0x6FF0, symBinAddr: 0x10000B340, symSize: 0x80 }
  - { offsetInCU: 0xBF7F, offset: 0xBF7F, size: 0x8, addend: 0x0, symName: __ZNSt3__19make_pairB7v160006INS_16__deque_iteratorIiPKiRS2_PKS3_lLl1024EEES7_EENS_4pairINS_18__unwrap_ref_decayIT_E4typeENS9_IT0_E4typeEEEOSA_OSD_, symObjAddr: 0x7070, symBinAddr: 0x10000B3C0, symSize: 0x30 }
  - { offsetInCU: 0xBFCE, offset: 0xBFCE, size: 0x8, addend: 0x0, symName: __ZNSt3__113__unwrap_iterB7v160006INS_16__deque_iteratorIiPKiRS2_PKS3_lLl1024EEENS_18__unwrap_iter_implIS7_Lb0EEELi0EEEDTclsrT0_8__unwrapclsr3stdE7declvalIT_EEEESB_, symObjAddr: 0x70A0, symBinAddr: 0x10000B3F0, symSize: 0x40 }
  - { offsetInCU: 0xC1B3, offset: 0xC1B3, size: 0x8, addend: 0x0, symName: __ZNSt3__16__copyB7v160006INS_17_ClassicAlgPolicyEPKiS3_NS_16__deque_iteratorIiPiRiPS5_lLl1024EEEEENS_4pairIT0_T2_EESA_T1_SB_, symObjAddr: 0x7190, symBinAddr: 0x10000B4E0, symSize: 0x50 }
  - { offsetInCU: 0xC21B, offset: 0xC21B, size: 0x8, addend: 0x0, symName: __ZNSt3__19make_pairB7v160006IRNS_16__deque_iteratorIiPKiRS2_PKS3_lLl1024EEENS1_IiPiRiPS9_lLl1024EEEEENS_4pairINS_18__unwrap_ref_decayIT_E4typeENSE_IT0_E4typeEEEOSF_OSI_, symObjAddr: 0x7200, symBinAddr: 0x10000B550, symSize: 0x30 }
  - { offsetInCU: 0xC26A, offset: 0xC26A, size: 0x8, addend: 0x0, symName: __ZNSt3__123__dispatch_copy_or_moveB7v160006INS_17_ClassicAlgPolicyENS_11__copy_loopIS1_EENS_14__copy_trivialEPKiS6_NS_16__deque_iteratorIiPiRiPS8_lLl1024EEEEENS_4pairIT2_T4_EESD_T3_SE_, symObjAddr: 0x7270, symBinAddr: 0x10000B5C0, symSize: 0x70 }
  - { offsetInCU: 0xC2E8, offset: 0xC2E8, size: 0x8, addend: 0x0, symName: __ZNSt3__121__unwrap_and_dispatchB7v160006INS_10__overloadINS_11__copy_loopINS_17_ClassicAlgPolicyEEENS_14__copy_trivialEEEPKiS8_NS_16__deque_iteratorIiPiRiPSA_lLl1024EEELi0EEENS_4pairIT0_T2_EESF_T1_SG_, symObjAddr: 0x72E0, symBinAddr: 0x10000B630, symSize: 0x140 }
  - { offsetInCU: 0xC377, offset: 0xC377, size: 0x8, addend: 0x0, symName: __ZNSt3__114__unwrap_rangeB7v160006IPKiS2_EENS_4pairIT0_S4_EET_S6_, symObjAddr: 0x7420, symBinAddr: 0x10000B770, symSize: 0x50 }
  - { offsetInCU: 0xC470, offset: 0xC470, size: 0x8, addend: 0x0, symName: __ZNSt3__19make_pairB7v160006IPKiNS_16__deque_iteratorIiPiRiPS4_lLl1024EEEEENS_4pairINS_18__unwrap_ref_decayIT_E4typeENS9_IT0_E4typeEEEOSA_OSD_, symObjAddr: 0x75F0, symBinAddr: 0x10000B940, symSize: 0x30 }
  - { offsetInCU: 0xC4BF, offset: 0xC4BF, size: 0x8, addend: 0x0, symName: __ZNSt3__114__rewrap_rangeB7v160006IPKiS2_EET_S3_T0_, symObjAddr: 0x7620, symBinAddr: 0x10000B970, symSize: 0x30 }
  - { offsetInCU: 0xC50B, offset: 0xC50B, size: 0x8, addend: 0x0, symName: __ZNSt3__19make_pairB7v160006IPKiS2_EENS_4pairINS_18__unwrap_ref_decayIT_E4typeENS4_IT0_E4typeEEEOS5_OS8_, symObjAddr: 0x7650, symBinAddr: 0x10000B9A0, symSize: 0x30 }
  - { offsetInCU: 0xC55A, offset: 0xC55A, size: 0x8, addend: 0x0, symName: __ZNSt3__113__unwrap_iterB7v160006IPKiNS_18__unwrap_iter_implIS2_Lb1EEELi0EEEDTclsrT0_8__unwrapclsr3stdE7declvalIT_EEEES6_, symObjAddr: 0x7680, symBinAddr: 0x10000B9D0, symSize: 0x20 }
  - { offsetInCU: 0xC69E, offset: 0xC69E, size: 0x8, addend: 0x0, symName: __ZNSt3__112__to_addressB7v160006IKiEEPT_S3_, symObjAddr: 0x7720, symBinAddr: 0x10000BA70, symSize: 0x10 }
  - { offsetInCU: 0xC77F, offset: 0xC77F, size: 0x8, addend: 0x0, symName: __ZNSt3__13minB7v160006IlEERKT_S3_S3_, symObjAddr: 0x7790, symBinAddr: 0x10000BAE0, symSize: 0x30 }
  - { offsetInCU: 0xC7C2, offset: 0xC7C2, size: 0x8, addend: 0x0, symName: __ZNSt3__16__copyB7v160006INS_17_ClassicAlgPolicyEPKiS3_PiEENS_4pairIT0_T2_EES6_T1_S7_, symObjAddr: 0x77C0, symBinAddr: 0x10000BB10, symSize: 0x40 }
  - { offsetInCU: 0xC82A, offset: 0xC82A, size: 0x8, addend: 0x0, symName: __ZNSt3__13minB7v160006IlNS_6__lessIllEEEERKT_S5_S5_T0_, symObjAddr: 0x78A0, symBinAddr: 0x10000BBF0, symSize: 0x50 }
  - { offsetInCU: 0xC8BF, offset: 0xC8BF, size: 0x8, addend: 0x0, symName: __ZNSt3__123__dispatch_copy_or_moveB7v160006INS_17_ClassicAlgPolicyENS_11__copy_loopIS1_EENS_14__copy_trivialEPKiS6_PiEENS_4pairIT2_T4_EES9_T3_SA_, symObjAddr: 0x7920, symBinAddr: 0x10000BC70, symSize: 0x60 }
  - { offsetInCU: 0xC93D, offset: 0xC93D, size: 0x8, addend: 0x0, symName: __ZNSt3__121__unwrap_and_dispatchB7v160006INS_10__overloadINS_11__copy_loopINS_17_ClassicAlgPolicyEEENS_14__copy_trivialEEEPKiS8_PiLi0EEENS_4pairIT0_T2_EESB_T1_SC_, symObjAddr: 0x7980, symBinAddr: 0x10000BCD0, symSize: 0xB0 }
  - { offsetInCU: 0xCABF, offset: 0xCABF, size: 0x8, addend: 0x0, symName: __ZNSt3__113__unwrap_iterB7v160006IPiNS_18__unwrap_iter_implIS1_Lb1EEELi0EEEDTclsrT0_8__unwrapclsr3stdE7declvalIT_EEEES5_, symObjAddr: 0x7A70, symBinAddr: 0x10000BDC0, symSize: 0x20 }
  - { offsetInCU: 0xCB03, offset: 0xCB03, size: 0x8, addend: 0x0, symName: __ZNSt3__19make_pairB7v160006IPKiPiEENS_4pairINS_18__unwrap_ref_decayIT_E4typeENS5_IT0_E4typeEEEOS6_OS9_, symObjAddr: 0x7A90, symBinAddr: 0x10000BDE0, symSize: 0x30 }
  - { offsetInCU: 0xCB52, offset: 0xCB52, size: 0x8, addend: 0x0, symName: __ZNSt3__113__rewrap_iterB7v160006IPiS1_NS_18__unwrap_iter_implIS1_Lb1EEEEET_S4_T0_, symObjAddr: 0x7AC0, symBinAddr: 0x10000BE10, symSize: 0x50 }
  - { offsetInCU: 0xCBA7, offset: 0xCBA7, size: 0x8, addend: 0x0, symName: __ZNSt3__119__copy_trivial_implB7v160006IKiiEENS_4pairIPT_PT0_EES4_S4_S6_, symObjAddr: 0x7B10, symBinAddr: 0x10000BE60, symSize: 0x70 }
  - { offsetInCU: 0xCC0F, offset: 0xCC0F, size: 0x8, addend: 0x0, symName: __ZNSt3__19make_pairB7v160006IRPKiPiEENS_4pairINS_18__unwrap_ref_decayIT_E4typeENS6_IT0_E4typeEEEOS7_OSA_, symObjAddr: 0x7B80, symBinAddr: 0x10000BED0, symSize: 0x30 }
  - { offsetInCU: 0xCCB1, offset: 0xCCB1, size: 0x8, addend: 0x0, symName: __ZNSt3__112__to_addressB7v160006IiEEPT_S2_, symObjAddr: 0x7C30, symBinAddr: 0x10000BF80, symSize: 0x10 }
  - { offsetInCU: 0xCCE6, offset: 0xCCE6, size: 0x8, addend: 0x0, symName: __ZNSt3__113__rewrap_iterB7v160006IPKiS2_NS_18__unwrap_iter_implIS2_Lb1EEEEET_S5_T0_, symObjAddr: 0x7D00, symBinAddr: 0x10000C050, symSize: 0x50 }
  - { offsetInCU: 0xCD83, offset: 0xCD83, size: 0x8, addend: 0x0, symName: __ZNSt3__113__rewrap_iterB7v160006INS_16__deque_iteratorIiPKiRS2_PKS3_lLl1024EEES7_NS_18__unwrap_iter_implIS7_Lb0EEEEET_SA_T0_, symObjAddr: 0x7E30, symBinAddr: 0x10000C180, symSize: 0x80 }
  - { offsetInCU: 0xCDD8, offset: 0xCDD8, size: 0x8, addend: 0x0, symName: __ZNSt3__18distanceB7v160006INS_16__deque_iteratorIiPKiRS2_PKS3_lLl1024EEEEENS_15iterator_traitsIT_E15difference_typeES9_S9_, symObjAddr: 0x7F10, symBinAddr: 0x10000C260, symSize: 0x60 }
  - { offsetInCU: 0xCE1B, offset: 0xCE1B, size: 0x8, addend: 0x0, symName: __ZNSt3__1neB7v160006ERKNS_5dequeIiNS_9allocatorIiEEE13__deque_rangeES6_, symObjAddr: 0x86C0, symBinAddr: 0x10000CA10, symSize: 0x30 }
  - { offsetInCU: 0xCE58, offset: 0xCE58, size: 0x8, addend: 0x0, symName: __ZNSt3__110__distanceB7v160006INS_16__deque_iteratorIiPKiRS2_PKS3_lLl1024EEEEENS_15iterator_traitsIT_E15difference_typeES9_S9_NS_26random_access_iterator_tagE, symObjAddr: 0x88C0, symBinAddr: 0x10000CC10, symSize: 0x30 }
  - { offsetInCU: 0xCEA5, offset: 0xCEA5, size: 0x8, addend: 0x0, symName: __ZNSt3__13maxB7v160006ImEERKT_S3_S3_, symObjAddr: 0x91E0, symBinAddr: 0x10000D530, symSize: 0x30 }
  - { offsetInCU: 0xCEE8, offset: 0xCEE8, size: 0x8, addend: 0x0, symName: __ZNSt3__14swapB7v160006IPPiEEvRT_S4_, symObjAddr: 0x9A70, symBinAddr: 0x10000DDC0, symSize: 0x40 }
  - { offsetInCU: 0xCF39, offset: 0xCF39, size: 0x8, addend: 0x0, symName: __ZNSt3__14moveB7v160006IPPiS2_EET0_T_S4_S3_, symObjAddr: 0x9B10, symBinAddr: 0x10000DE60, symSize: 0x40 }
  - { offsetInCU: 0xCF93, offset: 0xCF93, size: 0x8, addend: 0x0, symName: __ZNSt3__16__moveB7v160006INS_17_ClassicAlgPolicyEPPiS3_S3_EENS_4pairIT0_T2_EES5_T1_S6_, symObjAddr: 0x9CC0, symBinAddr: 0x10000E010, symSize: 0x40 }
  - { offsetInCU: 0xCFFF, offset: 0xCFFF, size: 0x8, addend: 0x0, symName: __ZNSt3__123__dispatch_copy_or_moveB7v160006INS_17_ClassicAlgPolicyENS_11__move_loopIS1_EENS_14__move_trivialEPPiS6_S6_EENS_4pairIT2_T4_EES8_T3_S9_, symObjAddr: 0x9D00, symBinAddr: 0x10000E050, symSize: 0x60 }
  - { offsetInCU: 0xD07D, offset: 0xD07D, size: 0x8, addend: 0x0, symName: __ZNSt3__121__unwrap_and_dispatchB7v160006INS_10__overloadINS_11__move_loopINS_17_ClassicAlgPolicyEEENS_14__move_trivialEEEPPiS8_S8_Li0EEENS_4pairIT0_T2_EESA_T1_SB_, symObjAddr: 0x9D60, symBinAddr: 0x10000E0B0, symSize: 0xB0 }
  - { offsetInCU: 0xD10C, offset: 0xD10C, size: 0x8, addend: 0x0, symName: __ZNSt3__114__unwrap_rangeB7v160006IPPiS2_EENS_4pairIT0_S4_EET_S6_, symObjAddr: 0x9E10, symBinAddr: 0x10000E160, symSize: 0x50 }
  - { offsetInCU: 0xD24B, offset: 0xD24B, size: 0x8, addend: 0x0, symName: __ZNSt3__113__unwrap_iterB7v160006IPPiNS_18__unwrap_iter_implIS2_Lb1EEELi0EEEDTclsrT0_8__unwrapclsr3stdE7declvalIT_EEEES6_, symObjAddr: 0x9EA0, symBinAddr: 0x10000E1F0, symSize: 0x20 }
  - { offsetInCU: 0xD28F, offset: 0xD28F, size: 0x8, addend: 0x0, symName: __ZNSt3__19make_pairB7v160006IPPiS2_EENS_4pairINS_18__unwrap_ref_decayIT_E4typeENS4_IT0_E4typeEEEOS5_OS8_, symObjAddr: 0x9EC0, symBinAddr: 0x10000E210, symSize: 0x30 }
  - { offsetInCU: 0xD2DE, offset: 0xD2DE, size: 0x8, addend: 0x0, symName: __ZNSt3__114__rewrap_rangeB7v160006IPPiS2_EET_S3_T0_, symObjAddr: 0x9EF0, symBinAddr: 0x10000E240, symSize: 0x30 }
  - { offsetInCU: 0xD32A, offset: 0xD32A, size: 0x8, addend: 0x0, symName: __ZNSt3__113__rewrap_iterB7v160006IPPiS2_NS_18__unwrap_iter_implIS2_Lb1EEEEET_S5_T0_, symObjAddr: 0x9F20, symBinAddr: 0x10000E270, symSize: 0x50 }
  - { offsetInCU: 0xD37F, offset: 0xD37F, size: 0x8, addend: 0x0, symName: __ZNSt3__119__copy_trivial_implB7v160006IPiS1_EENS_4pairIPT_PT0_EES4_S4_S6_, symObjAddr: 0x9F70, symBinAddr: 0x10000E2C0, symSize: 0x70 }
  - { offsetInCU: 0xD3E7, offset: 0xD3E7, size: 0x8, addend: 0x0, symName: __ZNSt3__19make_pairB7v160006IRPPiS2_EENS_4pairINS_18__unwrap_ref_decayIT_E4typeENS5_IT0_E4typeEEEOS6_OS9_, symObjAddr: 0x9FE0, symBinAddr: 0x10000E330, symSize: 0x30 }
  - { offsetInCU: 0xD489, offset: 0xD489, size: 0x8, addend: 0x0, symName: __ZNSt3__18distanceB7v160006INS_13move_iteratorIPPiEEEENS_15iterator_traitsIT_E15difference_typeES6_S6_, symObjAddr: 0xA0E0, symBinAddr: 0x10000E430, symSize: 0x40 }
  - { offsetInCU: 0xD4CC, offset: 0xD4CC, size: 0x8, addend: 0x0, symName: __ZNSt3__110__distanceB7v160006INS_13move_iteratorIPPiEEEENS_15iterator_traitsIT_E15difference_typeES6_S6_NS_26random_access_iterator_tagE, symObjAddr: 0xA200, symBinAddr: 0x10000E550, symSize: 0x30 }
  - { offsetInCU: 0xD519, offset: 0xD519, size: 0x8, addend: 0x0, symName: __ZNSt3__1miB7v160006IPPiS2_EENS_13move_iteratorIT_E15difference_typeERKS5_RKNS3_IT0_EE, symObjAddr: 0xA230, symBinAddr: 0x10000E580, symSize: 0x40 }
  - { offsetInCU: 0xD568, offset: 0xD568, size: 0x8, addend: 0x0, symName: __ZNSt3__113move_backwardB7v160006IPPiS2_EET0_T_S4_S3_, symObjAddr: 0xA450, symBinAddr: 0x10000E7A0, symSize: 0x40 }
  - { offsetInCU: 0xD5C2, offset: 0xD5C2, size: 0x8, addend: 0x0, symName: __ZNSt3__115__move_backwardB7v160006INS_17_ClassicAlgPolicyEPPiS3_S3_EENS_4pairIT0_T2_EES5_T1_S6_, symObjAddr: 0xA490, symBinAddr: 0x10000E7E0, symSize: 0x40 }
  - { offsetInCU: 0xD62E, offset: 0xD62E, size: 0x8, addend: 0x0, symName: __ZNSt3__123__dispatch_copy_or_moveB7v160006INS_17_ClassicAlgPolicyENS_20__move_backward_loopIS1_EENS_23__move_backward_trivialEPPiS6_S6_EENS_4pairIT2_T4_EES8_T3_S9_, symObjAddr: 0xA4D0, symBinAddr: 0x10000E820, symSize: 0x60 }
  - { offsetInCU: 0xD6AC, offset: 0xD6AC, size: 0x8, addend: 0x0, symName: __ZNSt3__121__unwrap_and_dispatchB7v160006INS_10__overloadINS_20__move_backward_loopINS_17_ClassicAlgPolicyEEENS_23__move_backward_trivialEEEPPiS8_S8_Li0EEENS_4pairIT0_T2_EESA_T1_SB_, symObjAddr: 0xA530, symBinAddr: 0x10000E880, symSize: 0xB0 }
  - { offsetInCU: 0xD781, offset: 0xD781, size: 0x8, addend: 0x0, symName: __ZNSt3__128__copy_backward_trivial_implB7v160006IPiS1_EENS_4pairIPT_PT0_EES4_S4_S6_, symObjAddr: 0xA620, symBinAddr: 0x10000E970, symSize: 0x80 }
  - { offsetInCU: 0xD7E9, offset: 0xD7E9, size: 0x8, addend: 0x0, symName: __ZNSt3__19make_pairB7v160006IRPPiS3_EENS_4pairINS_18__unwrap_ref_decayIT_E4typeENS5_IT0_E4typeEEEOS6_OS9_, symObjAddr: 0xA6A0, symBinAddr: 0x10000E9F0, symSize: 0x30 }
  - { offsetInCU: 0xD838, offset: 0xD838, size: 0x8, addend: 0x0, symName: __ZNSt3__13maxB7v160006ImNS_6__lessImmEEEERKT_S5_S5_T0_, symObjAddr: 0xA6D0, symBinAddr: 0x10000EA20, symSize: 0x50 }
  - { offsetInCU: 0xD892, offset: 0xD892, size: 0x8, addend: 0x0, symName: __ZNSt3__119__allocate_at_leastB7v160006INS_9allocatorIPiEEEENS_19__allocation_resultINS_16allocator_traitsIT_E7pointerEEERS6_m, symObjAddr: 0xA820, symBinAddr: 0x10000EB70, symSize: 0x40 }
  - { offsetInCU: 0xD8D5, offset: 0xD8D5, size: 0x8, addend: 0x0, symName: __ZNSt3__1eqB7v160006ERKNS_5dequeIiNS_9allocatorIiEEE13__deque_rangeES6_, symObjAddr: 0xACB0, symBinAddr: 0x10000F000, symSize: 0x30 }
  - { offsetInCU: 0xD912, offset: 0xD912, size: 0x8, addend: 0x0, symName: __ZNSt3__1eqB7v160006IP11InstructionEEbRKNS_11__wrap_iterIT_EES7_, symObjAddr: 0xB020, symBinAddr: 0x10000F370, symSize: 0x40 }
  - { offsetInCU: 0xDDDE, offset: 0xDDDE, size: 0x8, addend: 0x0, symName: __ZNSt3__18distanceB7v160006IP11InstructionEENS_15iterator_traitsIT_E15difference_typeES4_S4_, symObjAddr: 0xB930, symBinAddr: 0x10000FC80, symSize: 0x30 }
  - { offsetInCU: 0xDE21, offset: 0xDE21, size: 0x8, addend: 0x0, symName: __ZNSt3__14copyB7v160006IP11InstructionS2_EET0_T_S4_S3_, symObjAddr: 0xB9B0, symBinAddr: 0x10000FD00, symSize: 0x40 }
  - { offsetInCU: 0xDE7B, offset: 0xDE7B, size: 0x8, addend: 0x0, symName: __ZNSt3__125__debug_db_invalidate_allB7v160006INS_6vectorI11InstructionNS_9allocatorIS2_EEEEEEvPT_, symObjAddr: 0xBB90, symBinAddr: 0x10000FEE0, symSize: 0x10 }
  - { offsetInCU: 0xDEAC, offset: 0xDEAC, size: 0x8, addend: 0x0, symName: __ZNSt3__110__distanceB7v160006IP11InstructionEENS_15iterator_traitsIT_E15difference_typeES4_S4_NS_26random_access_iterator_tagE, symObjAddr: 0xBBA0, symBinAddr: 0x10000FEF0, symSize: 0x20 }
  - { offsetInCU: 0xDEF9, offset: 0xDEF9, size: 0x8, addend: 0x0, symName: __ZNSt3__121__convert_to_integralB7v160006Em, symObjAddr: 0xBBC0, symBinAddr: 0x10000FF10, symSize: 0x10 }
  - { offsetInCU: 0xDF25, offset: 0xDF25, size: 0x8, addend: 0x0, symName: __ZNSt3__19__advanceB7v160006IP11InstructionEEvRT_NS_15iterator_traitsIS3_E15difference_typeENS_26random_access_iterator_tagE, symObjAddr: 0xBBD0, symBinAddr: 0x10000FF20, symSize: 0x20 }
  - { offsetInCU: 0xDF6E, offset: 0xDF6E, size: 0x8, addend: 0x0, symName: __ZNSt3__16__copyB7v160006INS_17_ClassicAlgPolicyEP11InstructionS3_S3_EENS_4pairIT0_T2_EES5_T1_S6_, symObjAddr: 0xBBF0, symBinAddr: 0x10000FF40, symSize: 0x40 }
  - { offsetInCU: 0xDFDA, offset: 0xDFDA, size: 0x8, addend: 0x0, symName: __ZNSt3__123__dispatch_copy_or_moveB7v160006INS_17_ClassicAlgPolicyENS_11__copy_loopIS1_EENS_14__copy_trivialEP11InstructionS6_S6_EENS_4pairIT2_T4_EES8_T3_S9_, symObjAddr: 0xBC30, symBinAddr: 0x10000FF80, symSize: 0x70 }
  - { offsetInCU: 0xE058, offset: 0xE058, size: 0x8, addend: 0x0, symName: __ZNSt3__121__unwrap_and_dispatchB7v160006INS_11__copy_loopINS_17_ClassicAlgPolicyEEEP11InstructionS5_S5_Li0EEENS_4pairIT0_T2_EES7_T1_S8_, symObjAddr: 0xBCA0, symBinAddr: 0x10000FFF0, symSize: 0xB0 }
  - { offsetInCU: 0xE0E7, offset: 0xE0E7, size: 0x8, addend: 0x0, symName: __ZNSt3__121__unwrap_and_dispatchB7v160006INS_10__overloadINS_11__copy_loopINS_17_ClassicAlgPolicyEEENS_14__copy_trivialEEEP11InstructionS8_S8_Li0EEENS_4pairIT0_T2_EESA_T1_SB_, symObjAddr: 0xBD50, symBinAddr: 0x1000100A0, symSize: 0xB0 }
  - { offsetInCU: 0xE176, offset: 0xE176, size: 0x8, addend: 0x0, symName: __ZNSt3__114__unwrap_rangeB7v160006IP11InstructionS2_EENS_4pairIT0_S4_EET_S6_, symObjAddr: 0xBE00, symBinAddr: 0x100010150, symSize: 0x50 }
  - { offsetInCU: 0xE26F, offset: 0xE26F, size: 0x8, addend: 0x0, symName: __ZNSt3__113__unwrap_iterB7v160006IP11InstructionNS_18__unwrap_iter_implIS2_Lb1EEELi0EEEDTclsrT0_8__unwrapclsr3stdE7declvalIT_EEEES6_, symObjAddr: 0xBED0, symBinAddr: 0x100010220, symSize: 0x20 }
  - { offsetInCU: 0xE2B3, offset: 0xE2B3, size: 0x8, addend: 0x0, symName: __ZNSt3__19make_pairB7v160006IP11InstructionS2_EENS_4pairINS_18__unwrap_ref_decayIT_E4typeENS4_IT0_E4typeEEEOS5_OS8_, symObjAddr: 0xBEF0, symBinAddr: 0x100010240, symSize: 0x30 }
  - { offsetInCU: 0xE302, offset: 0xE302, size: 0x8, addend: 0x0, symName: __ZNSt3__114__rewrap_rangeB7v160006IP11InstructionS2_EET_S3_T0_, symObjAddr: 0xBF20, symBinAddr: 0x100010270, symSize: 0x30 }
  - { offsetInCU: 0xE34E, offset: 0xE34E, size: 0x8, addend: 0x0, symName: __ZNSt3__113__rewrap_iterB7v160006IP11InstructionS2_NS_18__unwrap_iter_implIS2_Lb1EEEEET_S5_T0_, symObjAddr: 0xBF50, symBinAddr: 0x1000102A0, symSize: 0x50 }
  - { offsetInCU: 0xE3F6, offset: 0xE3F6, size: 0x8, addend: 0x0, symName: __ZNSt3__123__str_find_first_not_ofB7v160006IcmNS_11char_traitsIcEELm18446744073709551615EEET0_PKT_S3_S6_S3_S3_, symObjAddr: 0xC650, symBinAddr: 0x1000109A0, symSize: 0xB0 }
  - { offsetInCU: 0xE4C8, offset: 0xE4C8, size: 0x8, addend: 0x0, symName: __ZNSt3__123__constexpr_char_memchrB7v160006EPKcim, symObjAddr: 0xC780, symBinAddr: 0x100010AD0, symSize: 0x30 }
  - { offsetInCU: 0xE510, offset: 0xE510, size: 0x8, addend: 0x0, symName: __ZNSt3__122__str_find_last_not_ofB7v160006IcmNS_11char_traitsIcEELm18446744073709551615EEET0_PKT_S3_S6_S3_S3_, symObjAddr: 0xC7B0, symBinAddr: 0x100010B00, symSize: 0xB0 }
  - { offsetInCU: 0xE5C5, offset: 0xE5C5, size: 0x8, addend: 0x0, symName: __ZNSt3__17getlineB7v160006IcNS_11char_traitsIcEENS_9allocatorIcEEEERNS_13basic_istreamIT_T0_EES9_RNS_12basic_stringIS6_S7_T1_EES6_, symObjAddr: 0xC9C0, symBinAddr: 0x100010D10, symSize: 0x220 }
  - { offsetInCU: 0xE683, offset: 0xE683, size: 0x8, addend: 0x0, symName: __ZNSt3__125__debug_db_invalidate_allB7v160006INS_12basic_stringIcNS_11char_traitsIcEENS_9allocatorIcEEEEEEvPT_, symObjAddr: 0xCE50, symBinAddr: 0x1000111A0, symSize: 0x10 }
  - { offsetInCU: 0xE8E9, offset: 0xE8E9, size: 0x8, addend: 0x0, symName: __ZNSt3__142__uninitialized_allocator_move_if_noexceptB7v160006INS_9allocatorI11InstructionEENS_16reverse_iteratorIPS2_EES6_S6_EET2_RT_T0_T1_S7_, symObjAddr: 0xD910, symBinAddr: 0x100011C60, symSize: 0x170 }
  - { offsetInCU: 0xE988, offset: 0xE988, size: 0x8, addend: 0x0, symName: __ZNSt3__14swapB7v160006IP11InstructionEEvRT_S4_, symObjAddr: 0xDA80, symBinAddr: 0x100011DD0, symSize: 0x40 }
  - { offsetInCU: 0xE9D9, offset: 0xE9D9, size: 0x8, addend: 0x0, symName: __ZNSt3__122__make_exception_guardB7v160006INS_29_AllocatorDestroyRangeReverseINS_9allocatorI11InstructionEENS_16reverse_iteratorIPS3_EEEEEENS_28__exception_guard_exceptionsIT_EESA_, symObjAddr: 0xDAC0, symBinAddr: 0x100011E10, symSize: 0x60 }
  - { offsetInCU: 0xEA0E, offset: 0xEA0E, size: 0x8, addend: 0x0, symName: __ZNSt3__119__allocator_destroyB7v160006INS_9allocatorI11InstructionEENS_16reverse_iteratorINS4_IPS2_EEEES7_EEvRT_T0_T1_, symObjAddr: 0xDD70, symBinAddr: 0x1000120C0, symSize: 0x70 }
  - { offsetInCU: 0xEA71, offset: 0xEA71, size: 0x8, addend: 0x0, symName: __ZNSt3__1neB7v160006INS_16reverse_iteratorIP11InstructionEES4_EEbRKNS1_IT_EERKNS1_IT0_EE, symObjAddr: 0xDE10, symBinAddr: 0x100012160, symSize: 0x50 }
  - { offsetInCU: 0xEABD, offset: 0xEABD, size: 0x8, addend: 0x0, symName: __ZNSt3__112__to_addressB7v160006INS_16reverse_iteratorINS1_IP11InstructionEEEEvEENS_5decayIDTclsr19__to_address_helperIT_EE6__callclsr3stdE7declvalIRKS7_EEEEE4typeES9_, symObjAddr: 0xDE60, symBinAddr: 0x1000121B0, symSize: 0x20 }
  - { offsetInCU: 0xEDFB, offset: 0xEDFB, size: 0x8, addend: 0x0, symName: __ZSt28__throw_bad_array_new_lengthB7v160006v, symObjAddr: 0x4020, symBinAddr: 0x100008370, symSize: 0x40 }
  - { offsetInCU: 0xF744, offset: 0xF744, size: 0x8, addend: 0x0, symName: __ZNSt3__16vectorI11InstructionNS_9allocatorIS1_EEE26__swap_out_circular_bufferERNS_14__split_bufferIS1_RS3_EE, symObjAddr: 0xD5C0, symBinAddr: 0x100011910, symSize: 0x130 }
  - { offsetInCU: 0x1105D, offset: 0x1105D, size: 0x8, addend: 0x0, symName: __Z7toupperi, symObjAddr: 0x27B0, symBinAddr: 0x100006B00, symSize: 0x20 }
  - { offsetInCU: 0x11A14, offset: 0x11A14, size: 0x8, addend: 0x0, symName: __Z3seti, symObjAddr: 0x0, symBinAddr: 0x100004350, symSize: 0x20 }
  - { offsetInCU: 0x11A3C, offset: 0x11A3C, size: 0x8, addend: 0x0, symName: __Z3addi, symObjAddr: 0x20, symBinAddr: 0x100004370, symSize: 0x20 }
  - { offsetInCU: 0x11A64, offset: 0x11A64, size: 0x8, addend: 0x0, symName: __Z9decrementi, symObjAddr: 0x40, symBinAddr: 0x100004390, symSize: 0x30 }
  - { offsetInCU: 0x11A8C, offset: 0x11A8C, size: 0x8, addend: 0x0, symName: __Z8schedulev, symObjAddr: 0x70, symBinAddr: 0x1000043C0, symSize: 0x490 }
  - { offsetInCU: 0x11B25, offset: 0x11B25, size: 0x8, addend: 0x0, symName: __ZNSt3__113basic_ostreamIcNS_11char_traitsIcEEElsB7v160006EPFRS3_S4_E, symObjAddr: 0x540, symBinAddr: 0x100004890, symSize: 0x20 }
  - { offsetInCU: 0x11B86, offset: 0x11B86, size: 0x8, addend: 0x0, symName: __ZNSt3__15queueIiNS_5dequeIiNS_9allocatorIiEEEEEC1B7v160006Ev, symObjAddr: 0x5B0, symBinAddr: 0x100004900, symSize: 0x20 }
  - { offsetInCU: 0x11BB0, offset: 0x11BB0, size: 0x8, addend: 0x0, symName: __ZNKSt3__15queueIiNS_5dequeIiNS_9allocatorIiEEEEE5emptyB7v160006Ev, symObjAddr: 0x5D0, symBinAddr: 0x100004920, symSize: 0x20 }
  - { offsetInCU: 0x11BD6, offset: 0x11BD6, size: 0x8, addend: 0x0, symName: __ZNSt3__15queueIiNS_5dequeIiNS_9allocatorIiEEEEEaSB7v160006ERKS5_, symObjAddr: 0x5F0, symBinAddr: 0x100004940, symSize: 0x30 }
  - { offsetInCU: 0x11C0B, offset: 0x11C0B, size: 0x8, addend: 0x0, symName: __ZNSt3__15queueIiNS_5dequeIiNS_9allocatorIiEEEEE5frontB7v160006Ev, symObjAddr: 0x620, symBinAddr: 0x100004970, symSize: 0x20 }
  - { offsetInCU: 0x11C31, offset: 0x11C31, size: 0x8, addend: 0x0, symName: __ZNSt3__15queueIiNS_5dequeIiNS_9allocatorIiEEEEE3popB7v160006Ev, symObjAddr: 0x640, symBinAddr: 0x100004990, symSize: 0x20 }
  - { offsetInCU: 0x11C57, offset: 0x11C57, size: 0x8, addend: 0x0, symName: __ZNSt3__16vectorI11InstructionNS_9allocatorIS1_EEE5beginB7v160006Ev, symObjAddr: 0x660, symBinAddr: 0x1000049B0, symSize: 0x30 }
  - { offsetInCU: 0x11C7F, offset: 0x11C7F, size: 0x8, addend: 0x0, symName: __ZNSt3__16vectorI11InstructionNS_9allocatorIS1_EEE3endB7v160006Ev, symObjAddr: 0x690, symBinAddr: 0x1000049E0, symSize: 0x30 }
  - { offsetInCU: 0x11CA7, offset: 0x11CA7, size: 0x8, addend: 0x0, symName: __ZNKSt3__111__wrap_iterIP11InstructionEdeB7v160006Ev, symObjAddr: 0x6F0, symBinAddr: 0x100004A40, symSize: 0x20 }
  - { offsetInCU: 0x11CD2, offset: 0x11CD2, size: 0x8, addend: 0x0, symName: __ZN11InstructionC1ERKS_, symObjAddr: 0x710, symBinAddr: 0x100004A60, symSize: 0x30 }
  - { offsetInCU: 0x11D07, offset: 0x11D07, size: 0x8, addend: 0x0, symName: __ZN11InstructionD1Ev, symObjAddr: 0x770, symBinAddr: 0x100004AC0, symSize: 0x20 }
  - { offsetInCU: 0x11D33, offset: 0x11D33, size: 0x8, addend: 0x0, symName: __ZNSt3__111__wrap_iterIP11InstructionEppB7v160006Ev, symObjAddr: 0x7A0, symBinAddr: 0x100004AF0, symSize: 0x20 }
  - { offsetInCU: 0x11D59, offset: 0x11D59, size: 0x8, addend: 0x0, symName: __ZNSt3__15queueIiNS_5dequeIiNS_9allocatorIiEEEEED1Ev, symObjAddr: 0x7C0, symBinAddr: 0x100004B10, symSize: 0x20 }
  - { offsetInCU: 0x11D85, offset: 0x11D85, size: 0x8, addend: 0x0, symName: __Z5blockv, symObjAddr: 0x7E0, symBinAddr: 0x100004B30, symSize: 0xD0 }
  - { offsetInCU: 0x11DAE, offset: 0x11DAE, size: 0x8, addend: 0x0, symName: __ZNSt3__15dequeIiNS_9allocatorIiEEE9push_backERKi, symObjAddr: 0x8B0, symBinAddr: 0x100004C00, symSize: 0x90 }
  - { offsetInCU: 0x11DF3, offset: 0x11DF3, size: 0x8, addend: 0x0, symName: __Z3endv, symObjAddr: 0x940, symBinAddr: 0x100004C90, symSize: 0x70 }
  - { offsetInCU: 0x11E1B, offset: 0x11E1B, size: 0x8, addend: 0x0, symName: __Z4forki, symObjAddr: 0x9B0, symBinAddr: 0x100004D00, symSize: 0x1D0 }
  - { offsetInCU: 0x11F40, offset: 0x11F40, size: 0x8, addend: 0x0, symName: __ZN8PcbBlockC1ERKS_, symObjAddr: 0xB80, symBinAddr: 0x100004ED0, symSize: 0x30 }
  - { offsetInCU: 0x11F75, offset: 0x11F75, size: 0x8, addend: 0x0, symName: __ZN8PcbBlockC1Ev, symObjAddr: 0xBB0, symBinAddr: 0x100004F00, symSize: 0x20 }
  - { offsetInCU: 0x11FA1, offset: 0x11FA1, size: 0x8, addend: 0x0, symName: __ZNSt3__16vectorI11InstructionNS_9allocatorIS1_EEEaSB7v160006ERKS4_, symObjAddr: 0xBD0, symBinAddr: 0x100004F20, symSize: 0x60 }
  - { offsetInCU: 0x11FD8, offset: 0x11FD8, size: 0x8, addend: 0x0, symName: __ZNSt3__15queueIiNS_5dequeIiNS_9allocatorIiEEEEE4pushB7v160006ERKi, symObjAddr: 0xC30, symBinAddr: 0x100004F80, symSize: 0x30 }
  - { offsetInCU: 0x12012, offset: 0x12012, size: 0x8, addend: 0x0, symName: __ZN8PcbBlockaSERKS_, symObjAddr: 0xC60, symBinAddr: 0x100004FB0, symSize: 0x50 }
  - { offsetInCU: 0x12043, offset: 0x12043, size: 0x8, addend: 0x0, symName: __ZN8PcbBlockD1Ev, symObjAddr: 0xCB0, symBinAddr: 0x100005000, symSize: 0x20 }
  - { offsetInCU: 0x1206E, offset: 0x1206E, size: 0x8, addend: 0x0, symName: __Z7replaceRNSt3__112basic_stringIcNS_11char_traitsIcEENS_9allocatorIcEEEE, symObjAddr: 0xCD0, symBinAddr: 0x100005020, symSize: 0xC0 }
  - { offsetInCU: 0x12097, offset: 0x12097, size: 0x8, addend: 0x0, symName: __ZNSt3__16vectorI11InstructionNS_9allocatorIS1_EEE5clearB7v160006Ev, symObjAddr: 0xD90, symBinAddr: 0x1000050E0, symSize: 0x50 }
  - { offsetInCU: 0x120CB, offset: 0x120CB, size: 0x8, addend: 0x0, symName: __Z13createProgramRKNSt3__112basic_stringIcNS_11char_traitsIcEENS_9allocatorIcEEEERNS_6vectorI11InstructionNS3_IS9_EEEE, symObjAddr: 0xDE0, symBinAddr: 0x100005130, symSize: 0x9E0 }
  - { offsetInCU: 0x12166, offset: 0x12166, size: 0x8, addend: 0x0, symName: __Z7quantumv, symObjAddr: 0x1810, symBinAddr: 0x100005B60, symSize: 0x5B0 }
  - { offsetInCU: 0x1218F, offset: 0x1218F, size: 0x8, addend: 0x0, symName: __ZN11InstructionC1Ev, symObjAddr: 0x1DC0, symBinAddr: 0x100006110, symSize: 0x20 }
  - { offsetInCU: 0x121BB, offset: 0x121BB, size: 0x8, addend: 0x0, symName: __ZNKSt3__16vectorI11InstructionNS_9allocatorIS1_EEE4sizeB7v160006Ev, symObjAddr: 0x1DE0, symBinAddr: 0x100006130, symSize: 0x20 }
  - { offsetInCU: 0x121E1, offset: 0x121E1, size: 0x8, addend: 0x0, symName: __ZNSt3__16vectorI11InstructionNS_9allocatorIS1_EEEixB7v160006Em, symObjAddr: 0x1E00, symBinAddr: 0x100006150, symSize: 0x20 }
  - { offsetInCU: 0x12218, offset: 0x12218, size: 0x8, addend: 0x0, symName: __ZN11InstructionaSERKS_, symObjAddr: 0x1E20, symBinAddr: 0x100006170, symSize: 0x40 }
  - { offsetInCU: 0x12248, offset: 0x12248, size: 0x8, addend: 0x0, symName: __Z7unblockv, symObjAddr: 0x1E60, symBinAddr: 0x1000061B0, symSize: 0xC0 }
  - { offsetInCU: 0x12272, offset: 0x12272, size: 0x8, addend: 0x0, symName: __ZNKSt3__15dequeIiNS_9allocatorIiEEE5emptyB7v160006Ev, symObjAddr: 0x1F20, symBinAddr: 0x100006270, symSize: 0x30 }
  - { offsetInCU: 0x12298, offset: 0x12298, size: 0x8, addend: 0x0, symName: __ZNSt3__15dequeIiNS_9allocatorIiEEE5frontEv, symObjAddr: 0x1F50, symBinAddr: 0x1000062A0, symSize: 0x50 }
  - { offsetInCU: 0x122C0, offset: 0x122C0, size: 0x8, addend: 0x0, symName: __ZNSt3__15dequeIiNS_9allocatorIiEEE9pop_frontEv, symObjAddr: 0x1FA0, symBinAddr: 0x1000062F0, symSize: 0xA0 }
  - { offsetInCU: 0x122F7, offset: 0x122F7, size: 0x8, addend: 0x0, symName: __Z5printv, symObjAddr: 0x2040, symBinAddr: 0x100006390, symSize: 0x50 }
  - { offsetInCU: 0x12311, offset: 0x12311, size: 0x8, addend: 0x0, symName: __Z17runProcessManageri, symObjAddr: 0x2090, symBinAddr: 0x1000063E0, symSize: 0x2D0 }
  - { offsetInCU: 0x12363, offset: 0x12363, size: 0x8, addend: 0x0, symName: __ZNSt3__112basic_stringIcNS_11char_traitsIcEENS_9allocatorIcEEEC1B7v160006IDnEEPKc, symObjAddr: 0x2360, symBinAddr: 0x1000066B0, symSize: 0x30 }
  - { offsetInCU: 0x123A0, offset: 0x123A0, size: 0x8, addend: 0x0, symName: __Z4trimRKNSt3__112basic_stringIcNS_11char_traitsIcEENS_9allocatorIcEEEE, symObjAddr: 0x2390, symBinAddr: 0x1000066E0, symSize: 0xA0 }
  - { offsetInCU: 0x123ED, offset: 0x123ED, size: 0x8, addend: 0x0, symName: __ZNKSt3__112basic_stringIcNS_11char_traitsIcEENS_9allocatorIcEEE17find_first_not_ofB7v160006EPKcm, symObjAddr: 0x2430, symBinAddr: 0x100006780, symSize: 0x70 }
  - { offsetInCU: 0x12433, offset: 0x12433, size: 0x8, addend: 0x0, symName: __ZNKSt3__112basic_stringIcNS_11char_traitsIcEENS_9allocatorIcEEE16find_last_not_ofB7v160006EPKcm, symObjAddr: 0x24A0, symBinAddr: 0x1000067F0, symSize: 0x70 }
  - { offsetInCU: 0x12479, offset: 0x12479, size: 0x8, addend: 0x0, symName: __ZNKSt3__112basic_stringIcNS_11char_traitsIcEENS_9allocatorIcEEE6substrB7v160006Emm, symObjAddr: 0x2510, symBinAddr: 0x100006860, symSize: 0x70 }
  - { offsetInCU: 0x125D6, offset: 0x125D6, size: 0x8, addend: 0x0, symName: __ZNSt3__114basic_ifstreamIcNS_11char_traitsIcEEEC1Ev, symObjAddr: 0x2580, symBinAddr: 0x1000068D0, symSize: 0x100 }
  - { offsetInCU: 0x12602, offset: 0x12602, size: 0x8, addend: 0x0, symName: __ZNKSt3__112basic_stringIcNS_11char_traitsIcEENS_9allocatorIcEEE5c_strB7v160006Ev, symObjAddr: 0x2680, symBinAddr: 0x1000069D0, symSize: 0x20 }
  - { offsetInCU: 0x12628, offset: 0x12628, size: 0x8, addend: 0x0, symName: __ZNKSt3__114basic_ifstreamIcNS_11char_traitsIcEEE7is_openEv, symObjAddr: 0x26A0, symBinAddr: 0x1000069F0, symSize: 0x30 }
  - { offsetInCU: 0x12650, offset: 0x12650, size: 0x8, addend: 0x0, symName: __ZNKSt3__19basic_iosIcNS_11char_traitsIcEEE4goodB7v160006Ev, symObjAddr: 0x26D0, symBinAddr: 0x100006A20, symSize: 0x20 }
  - { offsetInCU: 0x12676, offset: 0x12676, size: 0x8, addend: 0x0, symName: __ZNSt3__112basic_stringIcNS_11char_traitsIcEENS_9allocatorIcEEEC1B7v160006Ev, symObjAddr: 0x26F0, symBinAddr: 0x100006A40, symSize: 0x20 }
  - { offsetInCU: 0x126A0, offset: 0x126A0, size: 0x8, addend: 0x0, symName: __ZNKSt3__112basic_stringIcNS_11char_traitsIcEENS_9allocatorIcEEE4sizeB7v160006Ev, symObjAddr: 0x2760, symBinAddr: 0x100006AB0, symSize: 0x50 }
  - { offsetInCU: 0x126C6, offset: 0x126C6, size: 0x8, addend: 0x0, symName: __ZNSt3__112basic_stringIcNS_11char_traitsIcEENS_9allocatorIcEEEixB7v160006Em, symObjAddr: 0x27D0, symBinAddr: 0x100006B20, symSize: 0x30 }
  - { offsetInCU: 0x1275A, offset: 0x1275A, size: 0x8, addend: 0x0, symName: __ZNSt3__118basic_stringstreamIcNS_11char_traitsIcEENS_9allocatorIcEEEC1B7v160006ERKNS_12basic_stringIcS2_S4_EEj, symObjAddr: 0x2800, symBinAddr: 0x100006B50, symSize: 0x120 }
  - { offsetInCU: 0x127A2, offset: 0x127A2, size: 0x8, addend: 0x0, symName: __ZNKSt3__19basic_iosIcNS_11char_traitsIcEEEntB7v160006Ev, symObjAddr: 0x2920, symBinAddr: 0x100006C70, symSize: 0x20 }
  - { offsetInCU: 0x127C8, offset: 0x127C8, size: 0x8, addend: 0x0, symName: __ZNSt3__114basic_ifstreamIcNS_11char_traitsIcEEE5closeEv, symObjAddr: 0x2940, symBinAddr: 0x100006C90, symSize: 0x50 }
  - { offsetInCU: 0x127F0, offset: 0x127F0, size: 0x8, addend: 0x0, symName: __ZNSt3__16vectorI11InstructionNS_9allocatorIS1_EEE9push_backB7v160006ERKS1_, symObjAddr: 0x2990, symBinAddr: 0x100006CE0, symSize: 0x60 }
  - { offsetInCU: 0x1282C, offset: 0x1282C, size: 0x8, addend: 0x0, symName: __ZNSt3__118basic_stringstreamIcNS_11char_traitsIcEENS_9allocatorIcEEED1Ev, symObjAddr: 0x29F0, symBinAddr: 0x100006D40, symSize: 0x70 }
  - { offsetInCU: 0x1285E, offset: 0x1285E, size: 0x8, addend: 0x0, symName: __ZNSt3__114basic_ifstreamIcNS_11char_traitsIcEEED1Ev, symObjAddr: 0x2A60, symBinAddr: 0x100006DB0, symSize: 0x80 }
  - { offsetInCU: 0x1288B, offset: 0x1288B, size: 0x8, addend: 0x0, symName: __ZN11InstructionC2ERKS_, symObjAddr: 0x2AE0, symBinAddr: 0x100006E30, symSize: 0x40 }
  - { offsetInCU: 0x128C0, offset: 0x128C0, size: 0x8, addend: 0x0, symName: __ZN11InstructionD2Ev, symObjAddr: 0x2B20, symBinAddr: 0x100006E70, symSize: 0x20 }
  - { offsetInCU: 0x128EC, offset: 0x128EC, size: 0x8, addend: 0x0, symName: __ZNSt3__15queueIiNS_5dequeIiNS_9allocatorIiEEEEED2Ev, symObjAddr: 0x2B40, symBinAddr: 0x100006E90, symSize: 0x20 }
  - { offsetInCU: 0x12919, offset: 0x12919, size: 0x8, addend: 0x0, symName: __ZNSt3__15dequeIiNS_9allocatorIiEEED1B7v160006Ev, symObjAddr: 0x2B60, symBinAddr: 0x100006EB0, symSize: 0x20 }
  - { offsetInCU: 0x12943, offset: 0x12943, size: 0x8, addend: 0x0, symName: __ZNSt3__15dequeIiNS_9allocatorIiEEED2B7v160006Ev, symObjAddr: 0x2B80, symBinAddr: 0x100006ED0, symSize: 0x80 }
  - { offsetInCU: 0x12999, offset: 0x12999, size: 0x8, addend: 0x0, symName: __ZNSt3__15dequeIiNS_9allocatorIiEEE5clearEv, symObjAddr: 0x2C00, symBinAddr: 0x100006F50, symSize: 0x190 }
  - { offsetInCU: 0x129FC, offset: 0x129FC, size: 0x8, addend: 0x0, symName: __ZNSt3__114__split_bufferIPiNS_9allocatorIS1_EEE5beginB7v160006Ev, symObjAddr: 0x2D90, symBinAddr: 0x1000070E0, symSize: 0x20 }
  - { offsetInCU: 0x12A22, offset: 0x12A22, size: 0x8, addend: 0x0, symName: __ZNSt3__114__split_bufferIPiNS_9allocatorIS1_EEE3endB7v160006Ev, symObjAddr: 0x2DB0, symBinAddr: 0x100007100, symSize: 0x20 }
  - { offsetInCU: 0x12A48, offset: 0x12A48, size: 0x8, addend: 0x0, symName: __ZNSt3__116allocator_traitsINS_9allocatorIiEEE10deallocateB7v160006ERS2_Pim, symObjAddr: 0x2DD0, symBinAddr: 0x100007120, symSize: 0x30 }
  - { offsetInCU: 0x12A8A, offset: 0x12A8A, size: 0x8, addend: 0x0, symName: __ZNSt3__15dequeIiNS_9allocatorIiEEE7__allocB7v160006Ev, symObjAddr: 0x2E00, symBinAddr: 0x100007150, symSize: 0x20 }
  - { offsetInCU: 0x12AB0, offset: 0x12AB0, size: 0x8, addend: 0x0, symName: __ZNSt3__114__split_bufferIPiNS_9allocatorIS1_EEED1Ev, symObjAddr: 0x2E20, symBinAddr: 0x100007170, symSize: 0x20 }
  - { offsetInCU: 0x12ADC, offset: 0x12ADC, size: 0x8, addend: 0x0, symName: __ZNSt3__15dequeIiNS_9allocatorIiEEE5beginB7v160006Ev, symObjAddr: 0x2E40, symBinAddr: 0x100007190, symSize: 0xC0 }
  - { offsetInCU: 0x12B11, offset: 0x12B11, size: 0x8, addend: 0x0, symName: __ZNSt3__15dequeIiNS_9allocatorIiEEE3endB7v160006Ev, symObjAddr: 0x2F00, symBinAddr: 0x100007250, symSize: 0xB0 }
  - { offsetInCU: 0x12B55, offset: 0x12B55, size: 0x8, addend: 0x0, symName: __ZNSt3__116allocator_traitsINS_9allocatorIiEEE7destroyB7v160006IivEEvRS2_PT_, symObjAddr: 0x2FE0, symBinAddr: 0x100007330, symSize: 0x30 }
  - { offsetInCU: 0x12B92, offset: 0x12B92, size: 0x8, addend: 0x0, symName: __ZNKSt3__116__deque_iteratorIiPiRiPS1_lLl1024EEdeB7v160006Ev, symObjAddr: 0x3010, symBinAddr: 0x100007360, symSize: 0x20 }
  - { offsetInCU: 0x12BB8, offset: 0x12BB8, size: 0x8, addend: 0x0, symName: __ZNSt3__116__deque_iteratorIiPiRiPS1_lLl1024EEppB7v160006Ev, symObjAddr: 0x3030, symBinAddr: 0x100007380, symSize: 0x60 }
  - { offsetInCU: 0x12BDE, offset: 0x12BDE, size: 0x8, addend: 0x0, symName: __ZNSt3__15dequeIiNS_9allocatorIiEEE6__sizeB7v160006Ev, symObjAddr: 0x3090, symBinAddr: 0x1000073E0, symSize: 0x20 }
  - { offsetInCU: 0x12C04, offset: 0x12C04, size: 0x8, addend: 0x0, symName: __ZNKSt3__114__split_bufferIPiNS_9allocatorIS1_EEE4sizeB7v160006Ev, symObjAddr: 0x30B0, symBinAddr: 0x100007400, symSize: 0x20 }
  - { offsetInCU: 0x12C2A, offset: 0x12C2A, size: 0x8, addend: 0x0, symName: __ZNSt3__114__split_bufferIPiNS_9allocatorIS1_EEE5frontB7v160006Ev, symObjAddr: 0x30D0, symBinAddr: 0x100007420, symSize: 0x20 }
  - { offsetInCU: 0x12C50, offset: 0x12C50, size: 0x8, addend: 0x0, symName: __ZNSt3__114__split_bufferIPiNS_9allocatorIS1_EEE9pop_frontB7v160006Ev, symObjAddr: 0x30F0, symBinAddr: 0x100007440, symSize: 0x30 }
  - { offsetInCU: 0x12C76, offset: 0x12C76, size: 0x8, addend: 0x0, symName: __ZNKSt3__114__split_bufferIPiNS_9allocatorIS1_EEE5emptyB7v160006Ev, symObjAddr: 0x3120, symBinAddr: 0x100007470, symSize: 0x20 }
  - { offsetInCU: 0x12C9C, offset: 0x12C9C, size: 0x8, addend: 0x0, symName: __ZNSt3__116__deque_iteratorIiPiRiPS1_lLl1024EEC1B7v160006ES3_S1_, symObjAddr: 0x3140, symBinAddr: 0x100007490, symSize: 0x30 }
  - { offsetInCU: 0x12CE4, offset: 0x12CE4, size: 0x8, addend: 0x0, symName: __ZNSt3__116__deque_iteratorIiPiRiPS1_lLl1024EEC2B7v160006ES3_S1_, symObjAddr: 0x3170, symBinAddr: 0x1000074C0, symSize: 0x30 }
  - { offsetInCU: 0x12D2C, offset: 0x12D2C, size: 0x8, addend: 0x0, symName: __ZNKSt3__15dequeIiNS_9allocatorIiEEE4sizeB7v160006Ev, symObjAddr: 0x31A0, symBinAddr: 0x1000074F0, symSize: 0x20 }
  - { offsetInCU: 0x12D52, offset: 0x12D52, size: 0x8, addend: 0x0, symName: __ZNKSt3__15dequeIiNS_9allocatorIiEEE6__sizeB7v160006Ev, symObjAddr: 0x31C0, symBinAddr: 0x100007510, symSize: 0x20 }
  - { offsetInCU: 0x12D78, offset: 0x12D78, size: 0x8, addend: 0x0, symName: __ZNKSt3__117__compressed_pairImNS_9allocatorIiEEE5firstB7v160006Ev, symObjAddr: 0x31E0, symBinAddr: 0x100007530, symSize: 0x20 }
  - { offsetInCU: 0x12D9E, offset: 0x12D9E, size: 0x8, addend: 0x0, symName: __ZNKSt3__122__compressed_pair_elemImLi0ELb0EE5__getB7v160006Ev, symObjAddr: 0x3200, symBinAddr: 0x100007550, symSize: 0x10 }
  - { offsetInCU: 0x12DC4, offset: 0x12DC4, size: 0x8, addend: 0x0, symName: __ZNSt3__19allocatorIiE7destroyB7v160006EPi, symObjAddr: 0x3240, symBinAddr: 0x100007590, symSize: 0x10 }
  - { offsetInCU: 0x12DF8, offset: 0x12DF8, size: 0x8, addend: 0x0, symName: __ZNSt3__117__compressed_pairImNS_9allocatorIiEEE5firstB7v160006Ev, symObjAddr: 0x3250, symBinAddr: 0x1000075A0, symSize: 0x20 }
  - { offsetInCU: 0x12E1E, offset: 0x12E1E, size: 0x8, addend: 0x0, symName: __ZNSt3__122__compressed_pair_elemImLi0ELb0EE5__getB7v160006Ev, symObjAddr: 0x3270, symBinAddr: 0x1000075C0, symSize: 0x10 }
  - { offsetInCU: 0x12E44, offset: 0x12E44, size: 0x8, addend: 0x0, symName: __ZNSt3__114__split_bufferIPiNS_9allocatorIS1_EEE19__destruct_at_beginB7v160006EPS1_, symObjAddr: 0x3280, symBinAddr: 0x1000075D0, symSize: 0x30 }
  - { offsetInCU: 0x12E78, offset: 0x12E78, size: 0x8, addend: 0x0, symName: __ZNSt3__114__split_bufferIPiNS_9allocatorIS1_EEE19__destruct_at_beginEPS1_NS_17integral_constantIbLb1EEE, symObjAddr: 0x32B0, symBinAddr: 0x100007600, symSize: 0x20 }
  - { offsetInCU: 0x12EB8, offset: 0x12EB8, size: 0x8, addend: 0x0, symName: __ZNSt3__19allocatorIiE10deallocateB7v160006EPim, symObjAddr: 0x32D0, symBinAddr: 0x100007620, symSize: 0x70 }
  - { offsetInCU: 0x12EFA, offset: 0x12EFA, size: 0x8, addend: 0x0, symName: __ZNSt3__117__compressed_pairImNS_9allocatorIiEEE6secondB7v160006Ev, symObjAddr: 0x33C0, symBinAddr: 0x100007710, symSize: 0x20 }
  - { offsetInCU: 0x12F20, offset: 0x12F20, size: 0x8, addend: 0x0, symName: __ZNSt3__122__compressed_pair_elemINS_9allocatorIiEELi1ELb1EE5__getB7v160006Ev, symObjAddr: 0x33E0, symBinAddr: 0x100007730, symSize: 0x10 }
  - { offsetInCU: 0x12F46, offset: 0x12F46, size: 0x8, addend: 0x0, symName: __ZNSt3__114__split_bufferIPiNS_9allocatorIS1_EEED2Ev, symObjAddr: 0x33F0, symBinAddr: 0x100007740, symSize: 0x60 }
  - { offsetInCU: 0x12F72, offset: 0x12F72, size: 0x8, addend: 0x0, symName: __ZNSt3__114__split_bufferIPiNS_9allocatorIS1_EEE5clearB7v160006Ev, symObjAddr: 0x3450, symBinAddr: 0x1000077A0, symSize: 0x20 }
  - { offsetInCU: 0x12F98, offset: 0x12F98, size: 0x8, addend: 0x0, symName: __ZNSt3__116allocator_traitsINS_9allocatorIPiEEE10deallocateB7v160006ERS3_PS2_m, symObjAddr: 0x3470, symBinAddr: 0x1000077C0, symSize: 0x30 }
  - { offsetInCU: 0x12FDA, offset: 0x12FDA, size: 0x8, addend: 0x0, symName: __ZNSt3__114__split_bufferIPiNS_9allocatorIS1_EEE7__allocB7v160006Ev, symObjAddr: 0x34A0, symBinAddr: 0x1000077F0, symSize: 0x20 }
  - { offsetInCU: 0x13000, offset: 0x13000, size: 0x8, addend: 0x0, symName: __ZNKSt3__114__split_bufferIPiNS_9allocatorIS1_EEE8capacityB7v160006Ev, symObjAddr: 0x34C0, symBinAddr: 0x100007810, symSize: 0x30 }
  - { offsetInCU: 0x13026, offset: 0x13026, size: 0x8, addend: 0x0, symName: __ZNSt3__114__split_bufferIPiNS_9allocatorIS1_EEE17__destruct_at_endB7v160006EPS1_, symObjAddr: 0x34F0, symBinAddr: 0x100007840, symSize: 0x30 }
  - { offsetInCU: 0x1305A, offset: 0x1305A, size: 0x8, addend: 0x0, symName: __ZNSt3__114__split_bufferIPiNS_9allocatorIS1_EEE17__destruct_at_endB7v160006EPS1_NS_17integral_constantIbLb0EEE, symObjAddr: 0x3520, symBinAddr: 0x100007870, symSize: 0x80 }
  - { offsetInCU: 0x1309A, offset: 0x1309A, size: 0x8, addend: 0x0, symName: __ZNSt3__116allocator_traitsINS_9allocatorIPiEEE7destroyB7v160006IS2_vEEvRS3_PT_, symObjAddr: 0x35A0, symBinAddr: 0x1000078F0, symSize: 0x30 }
  - { offsetInCU: 0x130D7, offset: 0x130D7, size: 0x8, addend: 0x0, symName: __ZNSt3__19allocatorIPiE7destroyB7v160006EPS1_, symObjAddr: 0x35E0, symBinAddr: 0x100007930, symSize: 0x10 }
  - { offsetInCU: 0x1310B, offset: 0x1310B, size: 0x8, addend: 0x0, symName: __ZNSt3__19allocatorIPiE10deallocateB7v160006EPS1_m, symObjAddr: 0x35F0, symBinAddr: 0x100007940, symSize: 0x70 }
  - { offsetInCU: 0x1314D, offset: 0x1314D, size: 0x8, addend: 0x0, symName: __ZNSt3__117__compressed_pairIPPiNS_9allocatorIS1_EEE6secondB7v160006Ev, symObjAddr: 0x3660, symBinAddr: 0x1000079B0, symSize: 0x20 }
  - { offsetInCU: 0x13173, offset: 0x13173, size: 0x8, addend: 0x0, symName: __ZNSt3__122__compressed_pair_elemINS_9allocatorIPiEELi1ELb1EE5__getB7v160006Ev, symObjAddr: 0x3680, symBinAddr: 0x1000079D0, symSize: 0x10 }
  - { offsetInCU: 0x13199, offset: 0x13199, size: 0x8, addend: 0x0, symName: __ZNKSt3__114__split_bufferIPiNS_9allocatorIS1_EEE9__end_capB7v160006Ev, symObjAddr: 0x3690, symBinAddr: 0x1000079E0, symSize: 0x20 }
  - { offsetInCU: 0x131BF, offset: 0x131BF, size: 0x8, addend: 0x0, symName: __ZNKSt3__117__compressed_pairIPPiNS_9allocatorIS1_EEE5firstB7v160006Ev, symObjAddr: 0x36B0, symBinAddr: 0x100007A00, symSize: 0x20 }
  - { offsetInCU: 0x131E5, offset: 0x131E5, size: 0x8, addend: 0x0, symName: __ZNKSt3__122__compressed_pair_elemIPPiLi0ELb0EE5__getB7v160006Ev, symObjAddr: 0x36D0, symBinAddr: 0x100007A20, symSize: 0x10 }
  - { offsetInCU: 0x1320B, offset: 0x1320B, size: 0x8, addend: 0x0, symName: __ZN8PcbBlockC2ERKS_, symObjAddr: 0x36E0, symBinAddr: 0x100007A30, symSize: 0x50 }
  - { offsetInCU: 0x13240, offset: 0x13240, size: 0x8, addend: 0x0, symName: __ZNSt3__16vectorI11InstructionNS_9allocatorIS1_EEEC1ERKS4_, symObjAddr: 0x3730, symBinAddr: 0x100007A80, symSize: 0x30 }
  - { offsetInCU: 0x1327B, offset: 0x1327B, size: 0x8, addend: 0x0, symName: __ZNSt3__16vectorI11InstructionNS_9allocatorIS1_EEEC2ERKS4_, symObjAddr: 0x3760, symBinAddr: 0x100007AB0, symSize: 0x120 }
  - { offsetInCU: 0x132E5, offset: 0x132E5, size: 0x8, addend: 0x0, symName: __ZNSt3__116allocator_traitsINS_9allocatorI11InstructionEEE37select_on_container_copy_constructionB7v160006IS3_vvEES3_RKS3_, symObjAddr: 0x3880, symBinAddr: 0x100007BD0, symSize: 0x10 }
  - { offsetInCU: 0x13314, offset: 0x13314, size: 0x8, addend: 0x0, symName: __ZNKSt3__16vectorI11InstructionNS_9allocatorIS1_EEE7__allocB7v160006Ev, symObjAddr: 0x3890, symBinAddr: 0x100007BE0, symSize: 0x20 }
  - { offsetInCU: 0x13344, offset: 0x13344, size: 0x8, addend: 0x0, symName: __ZNSt3__117__compressed_pairIP11InstructionNS_9allocatorIS1_EEEC1B7v160006IDnS4_EEOT_OT0_, symObjAddr: 0x38B0, symBinAddr: 0x100007C00, symSize: 0x30 }
  - { offsetInCU: 0x1339C, offset: 0x1339C, size: 0x8, addend: 0x0, symName: __ZNSt3__16vectorI11InstructionNS_9allocatorIS1_EEE16__destroy_vectorC1ERS4_, symObjAddr: 0x3920, symBinAddr: 0x100007C70, symSize: 0x30 }
  - { offsetInCU: 0x133D5, offset: 0x133D5, size: 0x8, addend: 0x0, symName: __ZNSt3__16vectorI11InstructionNS_9allocatorIS1_EEE11__vallocateB7v160006Em, symObjAddr: 0x3960, symBinAddr: 0x100007CB0, symSize: 0xA0 }
  - { offsetInCU: 0x13419, offset: 0x13419, size: 0x8, addend: 0x0, symName: __ZNSt3__16vectorI11InstructionNS_9allocatorIS1_EEE18__construct_at_endIPS1_Li0EEEvT_S7_m, symObjAddr: 0x3A00, symBinAddr: 0x100007D50, symSize: 0xA0 }
  - { offsetInCU: 0x1348C, offset: 0x1348C, size: 0x8, addend: 0x0, symName: __ZNSt3__128__exception_guard_exceptionsINS_6vectorI11InstructionNS_9allocatorIS2_EEE16__destroy_vectorEE10__completeB7v160006Ev, symObjAddr: 0x3AA0, symBinAddr: 0x100007DF0, symSize: 0x20 }
  - { offsetInCU: 0x134B2, offset: 0x134B2, size: 0x8, addend: 0x0, symName: __ZNSt3__128__exception_guard_exceptionsINS_6vectorI11InstructionNS_9allocatorIS2_EEE16__destroy_vectorEED1B7v160006Ev, symObjAddr: 0x3AC0, symBinAddr: 0x100007E10, symSize: 0x20 }
  - { offsetInCU: 0x134DC, offset: 0x134DC, size: 0x8, addend: 0x0, symName: __ZNKSt3__117__compressed_pairIP11InstructionNS_9allocatorIS1_EEE6secondB7v160006Ev, symObjAddr: 0x3AE0, symBinAddr: 0x100007E30, symSize: 0x20 }
  - { offsetInCU: 0x13502, offset: 0x13502, size: 0x8, addend: 0x0, symName: __ZNKSt3__122__compressed_pair_elemINS_9allocatorI11InstructionEELi1ELb1EE5__getB7v160006Ev, symObjAddr: 0x3B00, symBinAddr: 0x100007E50, symSize: 0x10 }
  - { offsetInCU: 0x13528, offset: 0x13528, size: 0x8, addend: 0x0, symName: __ZNSt3__117__compressed_pairIP11InstructionNS_9allocatorIS1_EEEC2B7v160006IDnS4_EEOT_OT0_, symObjAddr: 0x3B10, symBinAddr: 0x100007E60, symSize: 0x40 }
  - { offsetInCU: 0x13580, offset: 0x13580, size: 0x8, addend: 0x0, symName: __ZNSt3__122__compressed_pair_elemIP11InstructionLi0ELb0EEC2B7v160006IDnvEEOT_, symObjAddr: 0x3B50, symBinAddr: 0x100007EA0, symSize: 0x20 }
  - { offsetInCU: 0x135C2, offset: 0x135C2, size: 0x8, addend: 0x0, symName: __ZNSt3__122__compressed_pair_elemINS_9allocatorI11InstructionEELi1ELb1EEC2B7v160006IS3_vEEOT_, symObjAddr: 0x3B70, symBinAddr: 0x100007EC0, symSize: 0x10 }
  - { offsetInCU: 0x13604, offset: 0x13604, size: 0x8, addend: 0x0, symName: __ZNSt3__128__exception_guard_exceptionsINS_6vectorI11InstructionNS_9allocatorIS2_EEE16__destroy_vectorEEC1B7v160006ES6_, symObjAddr: 0x3B80, symBinAddr: 0x100007ED0, symSize: 0x30 }
  - { offsetInCU: 0x1363C, offset: 0x1363C, size: 0x8, addend: 0x0, symName: __ZNSt3__128__exception_guard_exceptionsINS_6vectorI11InstructionNS_9allocatorIS2_EEE16__destroy_vectorEEC2B7v160006ES6_, symObjAddr: 0x3BB0, symBinAddr: 0x100007F00, symSize: 0x20 }
  - { offsetInCU: 0x13674, offset: 0x13674, size: 0x8, addend: 0x0, symName: __ZNSt3__16vectorI11InstructionNS_9allocatorIS1_EEE16__destroy_vectorC2ERS4_, symObjAddr: 0x3BD0, symBinAddr: 0x100007F20, symSize: 0x20 }
  - { offsetInCU: 0x136AD, offset: 0x136AD, size: 0x8, addend: 0x0, symName: __ZNKSt3__16vectorI11InstructionNS_9allocatorIS1_EEE8max_sizeEv, symObjAddr: 0x3BF0, symBinAddr: 0x100007F40, symSize: 0x70 }
  - { offsetInCU: 0x136D5, offset: 0x136D5, size: 0x8, addend: 0x0, symName: __ZNKSt3__16vectorI11InstructionNS_9allocatorIS1_EEE20__throw_length_errorB7v160006Ev, symObjAddr: 0x3C60, symBinAddr: 0x100007FB0, symSize: 0x20 }
  - { offsetInCU: 0x136FB, offset: 0x136FB, size: 0x8, addend: 0x0, symName: __ZNSt3__16vectorI11InstructionNS_9allocatorIS1_EEE7__allocB7v160006Ev, symObjAddr: 0x3CC0, symBinAddr: 0x100008010, symSize: 0x20 }
  - { offsetInCU: 0x13721, offset: 0x13721, size: 0x8, addend: 0x0, symName: __ZNSt3__16vectorI11InstructionNS_9allocatorIS1_EEE9__end_capB7v160006Ev, symObjAddr: 0x3CE0, symBinAddr: 0x100008030, symSize: 0x20 }
  - { offsetInCU: 0x13747, offset: 0x13747, size: 0x8, addend: 0x0, symName: __ZNKSt3__16vectorI11InstructionNS_9allocatorIS1_EEE14__annotate_newB7v160006Em, symObjAddr: 0x3D00, symBinAddr: 0x100008050, symSize: 0xB0 }
  - { offsetInCU: 0x1377C, offset: 0x1377C, size: 0x8, addend: 0x0, symName: __ZNSt3__116allocator_traitsINS_9allocatorI11InstructionEEE8max_sizeB7v160006IS3_vEEmRKS3_, symObjAddr: 0x3DE0, symBinAddr: 0x100008130, symSize: 0x20 }
  - { offsetInCU: 0x137AA, offset: 0x137AA, size: 0x8, addend: 0x0, symName: __ZNSt3__114numeric_limitsIlE3maxB7v160006Ev, symObjAddr: 0x3E00, symBinAddr: 0x100008150, symSize: 0x10 }
  - { offsetInCU: 0x137C8, offset: 0x137C8, size: 0x8, addend: 0x0, symName: __ZNKSt3__16__lessImmEclB7v160006ERKmS3_, symObjAddr: 0x3E60, symBinAddr: 0x1000081B0, symSize: 0x30 }
  - { offsetInCU: 0x1380A, offset: 0x1380A, size: 0x8, addend: 0x0, symName: __ZNKSt3__19allocatorI11InstructionE8max_sizeB7v160006Ev, symObjAddr: 0x3E90, symBinAddr: 0x1000081E0, symSize: 0x20 }
  - { offsetInCU: 0x13830, offset: 0x13830, size: 0x8, addend: 0x0, symName: __ZNSt3__123__libcpp_numeric_limitsIlLb1EE3maxB7v160006Ev, symObjAddr: 0x3EB0, symBinAddr: 0x100008200, symSize: 0x10 }
  - { offsetInCU: 0x13844, offset: 0x13844, size: 0x8, addend: 0x0, symName: __ZNSt12length_errorC1B7v160006EPKc, symObjAddr: 0x3F30, symBinAddr: 0x100008280, symSize: 0x30 }
  - { offsetInCU: 0x1387C, offset: 0x1387C, size: 0x8, addend: 0x0, symName: __ZNSt12length_errorC2B7v160006EPKc, symObjAddr: 0x3F60, symBinAddr: 0x1000082B0, symSize: 0x40 }
  - { offsetInCU: 0x138B4, offset: 0x138B4, size: 0x8, addend: 0x0, symName: __ZNSt3__19allocatorI11InstructionE8allocateB7v160006Em, symObjAddr: 0x3FA0, symBinAddr: 0x1000082F0, symSize: 0x80 }
  - { offsetInCU: 0x138E8, offset: 0x138E8, size: 0x8, addend: 0x0, symName: __ZNSt3__117__compressed_pairIP11InstructionNS_9allocatorIS1_EEE6secondB7v160006Ev, symObjAddr: 0x40A0, symBinAddr: 0x1000083F0, symSize: 0x20 }
  - { offsetInCU: 0x1390E, offset: 0x1390E, size: 0x8, addend: 0x0, symName: __ZNSt3__122__compressed_pair_elemINS_9allocatorI11InstructionEELi1ELb1EE5__getB7v160006Ev, symObjAddr: 0x40C0, symBinAddr: 0x100008410, symSize: 0x10 }
  - { offsetInCU: 0x13934, offset: 0x13934, size: 0x8, addend: 0x0, symName: __ZNSt3__117__compressed_pairIP11InstructionNS_9allocatorIS1_EEE5firstB7v160006Ev, symObjAddr: 0x40D0, symBinAddr: 0x100008420, symSize: 0x20 }
  - { offsetInCU: 0x1395A, offset: 0x1395A, size: 0x8, addend: 0x0, symName: __ZNSt3__122__compressed_pair_elemIP11InstructionLi0ELb0EE5__getB7v160006Ev, symObjAddr: 0x40F0, symBinAddr: 0x100008440, symSize: 0x10 }
  - { offsetInCU: 0x13980, offset: 0x13980, size: 0x8, addend: 0x0, symName: __ZNKSt3__16vectorI11InstructionNS_9allocatorIS1_EEE31__annotate_contiguous_containerB7v160006EPKvS6_S6_S6_, symObjAddr: 0x4100, symBinAddr: 0x100008450, symSize: 0x20 }
  - { offsetInCU: 0x139D6, offset: 0x139D6, size: 0x8, addend: 0x0, symName: __ZNKSt3__16vectorI11InstructionNS_9allocatorIS1_EEE4dataB7v160006Ev, symObjAddr: 0x4120, symBinAddr: 0x100008470, symSize: 0x20 }
  - { offsetInCU: 0x139FC, offset: 0x139FC, size: 0x8, addend: 0x0, symName: __ZNKSt3__16vectorI11InstructionNS_9allocatorIS1_EEE8capacityB7v160006Ev, symObjAddr: 0x4140, symBinAddr: 0x100008490, symSize: 0x30 }
  - { offsetInCU: 0x13A22, offset: 0x13A22, size: 0x8, addend: 0x0, symName: __ZNKSt3__16vectorI11InstructionNS_9allocatorIS1_EEE9__end_capB7v160006Ev, symObjAddr: 0x4180, symBinAddr: 0x1000084D0, symSize: 0x20 }
  - { offsetInCU: 0x13A48, offset: 0x13A48, size: 0x8, addend: 0x0, symName: __ZNKSt3__117__compressed_pairIP11InstructionNS_9allocatorIS1_EEE5firstB7v160006Ev, symObjAddr: 0x41A0, symBinAddr: 0x1000084F0, symSize: 0x20 }
  - { offsetInCU: 0x13A6E, offset: 0x13A6E, size: 0x8, addend: 0x0, symName: __ZNKSt3__122__compressed_pair_elemIP11InstructionLi0ELb0EE5__getB7v160006Ev, symObjAddr: 0x41C0, symBinAddr: 0x100008510, symSize: 0x10 }
  - { offsetInCU: 0x13AAD, offset: 0x13AAD, size: 0x8, addend: 0x0, symName: __ZNSt3__16vectorI11InstructionNS_9allocatorIS1_EEE21_ConstructTransactionC1B7v160006ERS4_m, symObjAddr: 0x41D0, symBinAddr: 0x100008520, symSize: 0x30 }
  - { offsetInCU: 0x13AF5, offset: 0x13AF5, size: 0x8, addend: 0x0, symName: __ZNSt3__16vectorI11InstructionNS_9allocatorIS1_EEE21_ConstructTransactionD1B7v160006Ev, symObjAddr: 0x4310, symBinAddr: 0x100008660, symSize: 0x20 }
  - { offsetInCU: 0x13B1F, offset: 0x13B1F, size: 0x8, addend: 0x0, symName: __ZNSt3__16vectorI11InstructionNS_9allocatorIS1_EEE21_ConstructTransactionC2B7v160006ERS4_m, symObjAddr: 0x4330, symBinAddr: 0x100008680, symSize: 0x40 }
  - { offsetInCU: 0x13B67, offset: 0x13B67, size: 0x8, addend: 0x0, symName: __ZNSt3__129_AllocatorDestroyRangeReverseINS_9allocatorI11InstructionEEPS2_EC1B7v160006ERS3_RS4_S7_, symObjAddr: 0x43D0, symBinAddr: 0x100008720, symSize: 0x40 }
  - { offsetInCU: 0x13BBE, offset: 0x13BBE, size: 0x8, addend: 0x0, symName: __ZNSt3__116allocator_traitsINS_9allocatorI11InstructionEEE9constructB7v160006IS2_JRS2_EvEEvRS3_PT_DpOT0_, symObjAddr: 0x4410, symBinAddr: 0x100008760, symSize: 0x30 }
  - { offsetInCU: 0x13C15, offset: 0x13C15, size: 0x8, addend: 0x0, symName: __ZNSt3__128__exception_guard_exceptionsINS_29_AllocatorDestroyRangeReverseINS_9allocatorI11InstructionEEPS3_EEE10__completeB7v160006Ev, symObjAddr: 0x4440, symBinAddr: 0x100008790, symSize: 0x20 }
  - { offsetInCU: 0x13C3B, offset: 0x13C3B, size: 0x8, addend: 0x0, symName: __ZNSt3__128__exception_guard_exceptionsINS_29_AllocatorDestroyRangeReverseINS_9allocatorI11InstructionEEPS3_EEED1B7v160006Ev, symObjAddr: 0x4460, symBinAddr: 0x1000087B0, symSize: 0x20 }
  - { offsetInCU: 0x13C65, offset: 0x13C65, size: 0x8, addend: 0x0, symName: __ZNSt3__128__exception_guard_exceptionsINS_29_AllocatorDestroyRangeReverseINS_9allocatorI11InstructionEEPS3_EEEC1B7v160006ES6_, symObjAddr: 0x4480, symBinAddr: 0x1000087D0, symSize: 0x40 }
  - { offsetInCU: 0x13C9D, offset: 0x13C9D, size: 0x8, addend: 0x0, symName: __ZNSt3__128__exception_guard_exceptionsINS_29_AllocatorDestroyRangeReverseINS_9allocatorI11InstructionEEPS3_EEEC2B7v160006ES6_, symObjAddr: 0x44C0, symBinAddr: 0x100008810, symSize: 0x30 }
  - { offsetInCU: 0x13CD5, offset: 0x13CD5, size: 0x8, addend: 0x0, symName: __ZNSt3__129_AllocatorDestroyRangeReverseINS_9allocatorI11InstructionEEPS2_EC2B7v160006ERS3_RS4_S7_, symObjAddr: 0x44F0, symBinAddr: 0x100008840, symSize: 0x40 }
  - { offsetInCU: 0x13D2C, offset: 0x13D2C, size: 0x8, addend: 0x0, symName: __ZNSt3__19allocatorI11InstructionE9constructB7v160006IS1_JRS1_EEEvPT_DpOT0_, symObjAddr: 0x4530, symBinAddr: 0x100008880, symSize: 0x30 }
  - { offsetInCU: 0x13D82, offset: 0x13D82, size: 0x8, addend: 0x0, symName: __ZNSt3__128__exception_guard_exceptionsINS_29_AllocatorDestroyRangeReverseINS_9allocatorI11InstructionEEPS3_EEED2B7v160006Ev, symObjAddr: 0x4560, symBinAddr: 0x1000088B0, symSize: 0x30 }
  - { offsetInCU: 0x13DAC, offset: 0x13DAC, size: 0x8, addend: 0x0, symName: __ZNKSt3__129_AllocatorDestroyRangeReverseINS_9allocatorI11InstructionEEPS2_EclB7v160006Ev, symObjAddr: 0x4590, symBinAddr: 0x1000088E0, symSize: 0x60 }
  - { offsetInCU: 0x13DD2, offset: 0x13DD2, size: 0x8, addend: 0x0, symName: __ZNSt3__116reverse_iteratorIP11InstructionEC1B7v160006ES2_, symObjAddr: 0x4660, symBinAddr: 0x1000089B0, symSize: 0x30 }
  - { offsetInCU: 0x13E0A, offset: 0x13E0A, size: 0x8, addend: 0x0, symName: __ZNSt3__116allocator_traitsINS_9allocatorI11InstructionEEE7destroyB7v160006IS2_vEEvRS3_PT_, symObjAddr: 0x46D0, symBinAddr: 0x100008A20, symSize: 0x30 }
  - { offsetInCU: 0x13E47, offset: 0x13E47, size: 0x8, addend: 0x0, symName: __ZNSt3__116reverse_iteratorIP11InstructionEppB7v160006Ev, symObjAddr: 0x4720, symBinAddr: 0x100008A70, symSize: 0x20 }
  - { offsetInCU: 0x13E6D, offset: 0x13E6D, size: 0x8, addend: 0x0, symName: __ZNKSt3__116reverse_iteratorIP11InstructionE4baseB7v160006Ev, symObjAddr: 0x4740, symBinAddr: 0x100008A90, symSize: 0x20 }
  - { offsetInCU: 0x13E93, offset: 0x13E93, size: 0x8, addend: 0x0, symName: __ZNSt3__19allocatorI11InstructionE7destroyB7v160006EPS1_, symObjAddr: 0x4760, symBinAddr: 0x100008AB0, symSize: 0x20 }
  - { offsetInCU: 0x13ECC, offset: 0x13ECC, size: 0x8, addend: 0x0, symName: __ZNSt3__119__to_address_helperINS_16reverse_iteratorIP11InstructionEEvE6__callB7v160006ERKS4_, symObjAddr: 0x4780, symBinAddr: 0x100008AD0, symSize: 0x50 }
  - { offsetInCU: 0x13EEF, offset: 0x13EEF, size: 0x8, addend: 0x0, symName: __ZNKSt3__116reverse_iteratorIP11InstructionEptB7v160006Ev, symObjAddr: 0x47D0, symBinAddr: 0x100008B20, symSize: 0x20 }
  - { offsetInCU: 0x13F15, offset: 0x13F15, size: 0x8, addend: 0x0, symName: __ZNKSt3__116reverse_iteratorIP11InstructionEdeB7v160006Ev, symObjAddr: 0x47F0, symBinAddr: 0x100008B40, symSize: 0x30 }
  - { offsetInCU: 0x13F49, offset: 0x13F49, size: 0x8, addend: 0x0, symName: __ZNSt3__116reverse_iteratorIP11InstructionEC2B7v160006ES2_, symObjAddr: 0x4820, symBinAddr: 0x100008B70, symSize: 0x30 }
  - { offsetInCU: 0x13F81, offset: 0x13F81, size: 0x8, addend: 0x0, symName: __ZNSt3__16vectorI11InstructionNS_9allocatorIS1_EEE21_ConstructTransactionD2B7v160006Ev, symObjAddr: 0x4850, symBinAddr: 0x100008BA0, symSize: 0x20 }
  - { offsetInCU: 0x13FAB, offset: 0x13FAB, size: 0x8, addend: 0x0, symName: __ZNSt3__128__exception_guard_exceptionsINS_6vectorI11InstructionNS_9allocatorIS2_EEE16__destroy_vectorEED2B7v160006Ev, symObjAddr: 0x4870, symBinAddr: 0x100008BC0, symSize: 0x30 }
  - { offsetInCU: 0x13FD5, offset: 0x13FD5, size: 0x8, addend: 0x0, symName: __ZNSt3__16vectorI11InstructionNS_9allocatorIS1_EEE16__destroy_vectorclB7v160006Ev, symObjAddr: 0x48A0, symBinAddr: 0x100008BF0, symSize: 0x90 }
  - { offsetInCU: 0x13FFB, offset: 0x13FFB, size: 0x8, addend: 0x0, symName: __ZNKSt3__16vectorI11InstructionNS_9allocatorIS1_EEE17__annotate_deleteB7v160006Ev, symObjAddr: 0x4930, symBinAddr: 0x100008C80, symSize: 0xB0 }
  - { offsetInCU: 0x14021, offset: 0x14021, size: 0x8, addend: 0x0, symName: __ZNSt3__16vectorI11InstructionNS_9allocatorIS1_EEE7__clearB7v160006Ev, symObjAddr: 0x49F0, symBinAddr: 0x100008D40, symSize: 0x20 }
  - { offsetInCU: 0x14047, offset: 0x14047, size: 0x8, addend: 0x0, symName: __ZNSt3__116allocator_traitsINS_9allocatorI11InstructionEEE10deallocateB7v160006ERS3_PS2_m, symObjAddr: 0x4A10, symBinAddr: 0x100008D60, symSize: 0x30 }
  - { offsetInCU: 0x14089, offset: 0x14089, size: 0x8, addend: 0x0, symName: __ZNSt3__16vectorI11InstructionNS_9allocatorIS1_EEE22__base_destruct_at_endB7v160006EPS1_, symObjAddr: 0x4A40, symBinAddr: 0x100008D90, symSize: 0x90 }
  - { offsetInCU: 0x140CD, offset: 0x140CD, size: 0x8, addend: 0x0, symName: __ZNSt3__19allocatorI11InstructionE10deallocateB7v160006EPS1_m, symObjAddr: 0x4AD0, symBinAddr: 0x100008E20, symSize: 0x70 }
  - { offsetInCU: 0x1410F, offset: 0x1410F, size: 0x8, addend: 0x0, symName: __ZN8PcbBlockC2Ev, symObjAddr: 0x4B40, symBinAddr: 0x100008E90, symSize: 0x20 }
  - { offsetInCU: 0x1413B, offset: 0x1413B, size: 0x8, addend: 0x0, symName: __ZNSt3__16vectorI11InstructionNS_9allocatorIS1_EEEC1B7v160006Ev, symObjAddr: 0x4B60, symBinAddr: 0x100008EB0, symSize: 0x20 }
  - { offsetInCU: 0x14165, offset: 0x14165, size: 0x8, addend: 0x0, symName: __ZNSt3__16vectorI11InstructionNS_9allocatorIS1_EEEC2B7v160006Ev, symObjAddr: 0x4B80, symBinAddr: 0x100008ED0, symSize: 0x50 }
  - { offsetInCU: 0x14194, offset: 0x14194, size: 0x8, addend: 0x0, symName: __ZNSt3__117__compressed_pairIP11InstructionNS_9allocatorIS1_EEEC1B7v160006IDnNS_18__default_init_tagEEEOT_OT0_, symObjAddr: 0x4BD0, symBinAddr: 0x100008F20, symSize: 0x30 }
  - { offsetInCU: 0x141EC, offset: 0x141EC, size: 0x8, addend: 0x0, symName: __ZNSt3__117__compressed_pairIP11InstructionNS_9allocatorIS1_EEEC2B7v160006IDnNS_18__default_init_tagEEEOT_OT0_, symObjAddr: 0x4C00, symBinAddr: 0x100008F50, symSize: 0x40 }
  - { offsetInCU: 0x14244, offset: 0x14244, size: 0x8, addend: 0x0, symName: __ZNSt3__122__compressed_pair_elemINS_9allocatorI11InstructionEELi1ELb1EEC2B7v160006ENS_18__default_init_tagE, symObjAddr: 0x4C40, symBinAddr: 0x100008F90, symSize: 0x20 }
  - { offsetInCU: 0x14278, offset: 0x14278, size: 0x8, addend: 0x0, symName: __ZNSt3__19allocatorI11InstructionEC2B7v160006Ev, symObjAddr: 0x4C60, symBinAddr: 0x100008FB0, symSize: 0x20 }
  - { offsetInCU: 0x142A2, offset: 0x142A2, size: 0x8, addend: 0x0, symName: __ZNSt3__116__non_trivial_ifILb1ENS_9allocatorI11InstructionEEEC2B7v160006Ev, symObjAddr: 0x4C80, symBinAddr: 0x100008FD0, symSize: 0x10 }
  - { offsetInCU: 0x142CC, offset: 0x142CC, size: 0x8, addend: 0x0, symName: __ZN8PcbBlockD2Ev, symObjAddr: 0x4C90, symBinAddr: 0x100008FE0, symSize: 0x20 }
  - { offsetInCU: 0x142F8, offset: 0x142F8, size: 0x8, addend: 0x0, symName: __ZNSt3__16vectorI11InstructionNS_9allocatorIS1_EEED1B7v160006Ev, symObjAddr: 0x4CB0, symBinAddr: 0x100009000, symSize: 0x20 }
  - { offsetInCU: 0x14322, offset: 0x14322, size: 0x8, addend: 0x0, symName: __ZNSt3__16vectorI11InstructionNS_9allocatorIS1_EEED2B7v160006Ev, symObjAddr: 0x4CD0, symBinAddr: 0x100009020, symSize: 0x30 }
  - { offsetInCU: 0x1434C, offset: 0x1434C, size: 0x8, addend: 0x0, symName: __ZN11InstructionC2Ev, symObjAddr: 0x4D00, symBinAddr: 0x100009050, symSize: 0x20 }
  - { offsetInCU: 0x14378, offset: 0x14378, size: 0x8, addend: 0x0, symName: __ZNSt3__118basic_stringstreamIcNS_11char_traitsIcEENS_9allocatorIcEEED2Ev, symObjAddr: 0x4D20, symBinAddr: 0x100009070, symSize: 0xA0 }
  - { offsetInCU: 0x143B2, offset: 0x143B2, size: 0x8, addend: 0x0, symName: __ZThn16_NSt3__118basic_stringstreamIcNS_11char_traitsIcEENS_9allocatorIcEEED1Ev, symObjAddr: 0x4DC0, symBinAddr: 0x100009110, symSize: 0x20 }
  - { offsetInCU: 0x143C9, offset: 0x143C9, size: 0x8, addend: 0x0, symName: __ZTv0_n24_NSt3__118basic_stringstreamIcNS_11char_traitsIcEENS_9allocatorIcEEED1Ev, symObjAddr: 0x4DE0, symBinAddr: 0x100009130, symSize: 0x20 }
  - { offsetInCU: 0x143E5, offset: 0x143E5, size: 0x8, addend: 0x0, symName: __ZNSt3__115basic_stringbufIcNS_11char_traitsIcEENS_9allocatorIcEEED1Ev, symObjAddr: 0x4E00, symBinAddr: 0x100009150, symSize: 0x20 }
  - { offsetInCU: 0x14412, offset: 0x14412, size: 0x8, addend: 0x0, symName: __ZNSt3__115basic_stringbufIcNS_11char_traitsIcEENS_9allocatorIcEEED2Ev, symObjAddr: 0x4E20, symBinAddr: 0x100009170, symSize: 0x70 }
  - { offsetInCU: 0x1443F, offset: 0x1443F, size: 0x8, addend: 0x0, symName: __ZNSt3__114basic_ifstreamIcNS_11char_traitsIcEEED2Ev, symObjAddr: 0x4E90, symBinAddr: 0x1000091E0, symSize: 0xA0 }
  - { offsetInCU: 0x14479, offset: 0x14479, size: 0x8, addend: 0x0, symName: __ZTv0_n24_NSt3__114basic_ifstreamIcNS_11char_traitsIcEEED1Ev, symObjAddr: 0x4F30, symBinAddr: 0x100009280, symSize: 0x20 }
  - { offsetInCU: 0x14490, offset: 0x14490, size: 0x8, addend: 0x0, symName: __ZNSt3__111char_traitsIcE6lengthEPKc, symObjAddr: 0x5140, symBinAddr: 0x100009490, symSize: 0x40 }
  - { offsetInCU: 0x144D1, offset: 0x144D1, size: 0x8, addend: 0x0, symName: __ZNKSt3__113basic_ostreamIcNS_11char_traitsIcEEE6sentrycvbB7v160006Ev, symObjAddr: 0x5180, symBinAddr: 0x1000094D0, symSize: 0x20 }
  - { offsetInCU: 0x144F7, offset: 0x144F7, size: 0x8, addend: 0x0, symName: __ZNSt3__119ostreambuf_iteratorIcNS_11char_traitsIcEEEC1B7v160006ERNS_13basic_ostreamIcS2_EE, symObjAddr: 0x53C0, symBinAddr: 0x100009710, symSize: 0x30 }
  - { offsetInCU: 0x1452F, offset: 0x1452F, size: 0x8, addend: 0x0, symName: __ZNKSt3__18ios_base5flagsB7v160006Ev, symObjAddr: 0x53F0, symBinAddr: 0x100009740, symSize: 0x20 }
  - { offsetInCU: 0x14557, offset: 0x14557, size: 0x8, addend: 0x0, symName: __ZNKSt3__19basic_iosIcNS_11char_traitsIcEEE4fillB7v160006Ev, symObjAddr: 0x5410, symBinAddr: 0x100009760, symSize: 0x70 }
  - { offsetInCU: 0x1457F, offset: 0x1457F, size: 0x8, addend: 0x0, symName: __ZNKSt3__119ostreambuf_iteratorIcNS_11char_traitsIcEEE6failedB7v160006Ev, symObjAddr: 0x5480, symBinAddr: 0x1000097D0, symSize: 0x20 }
  - { offsetInCU: 0x145A5, offset: 0x145A5, size: 0x8, addend: 0x0, symName: __ZNSt3__19basic_iosIcNS_11char_traitsIcEEE8setstateB7v160006Ej, symObjAddr: 0x54A0, symBinAddr: 0x1000097F0, symSize: 0x30 }
  - { offsetInCU: 0x145DA, offset: 0x145DA, size: 0x8, addend: 0x0, symName: __ZNKSt3__18ios_base5widthB7v160006Ev, symObjAddr: 0x54D0, symBinAddr: 0x100009820, symSize: 0x20 }
  - { offsetInCU: 0x14602, offset: 0x14602, size: 0x8, addend: 0x0, symName: __ZNSt3__115basic_streambufIcNS_11char_traitsIcEEE5sputnB7v160006EPKcl, symObjAddr: 0x54F0, symBinAddr: 0x100009840, symSize: 0x30 }
  - { offsetInCU: 0x14644, offset: 0x14644, size: 0x8, addend: 0x0, symName: __ZNSt3__112basic_stringIcNS_11char_traitsIcEENS_9allocatorIcEEEC1B7v160006Emc, symObjAddr: 0x5520, symBinAddr: 0x100009870, symSize: 0x30 }
  - { offsetInCU: 0x1468C, offset: 0x1468C, size: 0x8, addend: 0x0, symName: __ZNKSt3__112basic_stringIcNS_11char_traitsIcEENS_9allocatorIcEEE4dataB7v160006Ev, symObjAddr: 0x5550, symBinAddr: 0x1000098A0, symSize: 0x30 }
  - { offsetInCU: 0x146B2, offset: 0x146B2, size: 0x8, addend: 0x0, symName: __ZNSt3__18ios_base5widthB7v160006El, symObjAddr: 0x5580, symBinAddr: 0x1000098D0, symSize: 0x30 }
  - { offsetInCU: 0x146F8, offset: 0x146F8, size: 0x8, addend: 0x0, symName: __ZNSt3__112basic_stringIcNS_11char_traitsIcEENS_9allocatorIcEEEC2B7v160006Emc, symObjAddr: 0x55B0, symBinAddr: 0x100009900, symSize: 0x50 }
  - { offsetInCU: 0x14740, offset: 0x14740, size: 0x8, addend: 0x0, symName: __ZNSt3__117__compressed_pairINS_12basic_stringIcNS_11char_traitsIcEENS_9allocatorIcEEE5__repES5_EC1B7v160006INS_18__default_init_tagESA_EEOT_OT0_, symObjAddr: 0x5600, symBinAddr: 0x100009950, symSize: 0x30 }
  - { offsetInCU: 0x14798, offset: 0x14798, size: 0x8, addend: 0x0, symName: __ZNSt3__117__compressed_pairINS_12basic_stringIcNS_11char_traitsIcEENS_9allocatorIcEEE5__repES5_EC2B7v160006INS_18__default_init_tagESA_EEOT_OT0_, symObjAddr: 0x5640, symBinAddr: 0x100009990, symSize: 0x30 }
  - { offsetInCU: 0x147F0, offset: 0x147F0, size: 0x8, addend: 0x0, symName: __ZNSt3__122__compressed_pair_elemINS_12basic_stringIcNS_11char_traitsIcEENS_9allocatorIcEEE5__repELi0ELb0EEC2B7v160006ENS_18__default_init_tagE, symObjAddr: 0x5670, symBinAddr: 0x1000099C0, symSize: 0x10 }
  - { offsetInCU: 0x14824, offset: 0x14824, size: 0x8, addend: 0x0, symName: __ZNSt3__122__compressed_pair_elemINS_9allocatorIcEELi1ELb1EEC2B7v160006ENS_18__default_init_tagE, symObjAddr: 0x5680, symBinAddr: 0x1000099D0, symSize: 0x20 }
  - { offsetInCU: 0x14858, offset: 0x14858, size: 0x8, addend: 0x0, symName: __ZNSt3__19allocatorIcEC2B7v160006Ev, symObjAddr: 0x56A0, symBinAddr: 0x1000099F0, symSize: 0x20 }
  - { offsetInCU: 0x14882, offset: 0x14882, size: 0x8, addend: 0x0, symName: __ZNSt3__116__non_trivial_ifILb1ENS_9allocatorIcEEEC2B7v160006Ev, symObjAddr: 0x56C0, symBinAddr: 0x100009A10, symSize: 0x10 }
  - { offsetInCU: 0x148AC, offset: 0x148AC, size: 0x8, addend: 0x0, symName: __ZNKSt3__112basic_stringIcNS_11char_traitsIcEENS_9allocatorIcEEE13__get_pointerB7v160006Ev, symObjAddr: 0x56E0, symBinAddr: 0x100009A30, symSize: 0x50 }
  - { offsetInCU: 0x148D2, offset: 0x148D2, size: 0x8, addend: 0x0, symName: __ZNKSt3__112basic_stringIcNS_11char_traitsIcEENS_9allocatorIcEEE9__is_longB7v160006Ev, symObjAddr: 0x5730, symBinAddr: 0x100009A80, symSize: 0x60 }
  - { offsetInCU: 0x148F8, offset: 0x148F8, size: 0x8, addend: 0x0, symName: __ZNKSt3__112basic_stringIcNS_11char_traitsIcEENS_9allocatorIcEEE18__get_long_pointerB7v160006Ev, symObjAddr: 0x5790, symBinAddr: 0x100009AE0, symSize: 0x20 }
  - { offsetInCU: 0x1491E, offset: 0x1491E, size: 0x8, addend: 0x0, symName: __ZNKSt3__112basic_stringIcNS_11char_traitsIcEENS_9allocatorIcEEE19__get_short_pointerB7v160006Ev, symObjAddr: 0x57B0, symBinAddr: 0x100009B00, symSize: 0x30 }
  - { offsetInCU: 0x14944, offset: 0x14944, size: 0x8, addend: 0x0, symName: __ZNKSt3__117__compressed_pairINS_12basic_stringIcNS_11char_traitsIcEENS_9allocatorIcEEE5__repES5_E5firstB7v160006Ev, symObjAddr: 0x57E0, symBinAddr: 0x100009B30, symSize: 0x20 }
  - { offsetInCU: 0x1496A, offset: 0x1496A, size: 0x8, addend: 0x0, symName: __ZNKSt3__122__compressed_pair_elemINS_12basic_stringIcNS_11char_traitsIcEENS_9allocatorIcEEE5__repELi0ELb0EE5__getB7v160006Ev, symObjAddr: 0x5800, symBinAddr: 0x100009B50, symSize: 0x10 }
  - { offsetInCU: 0x14990, offset: 0x14990, size: 0x8, addend: 0x0, symName: __ZNSt3__114pointer_traitsIPKcE10pointer_toB7v160006ERS1_, symObjAddr: 0x5810, symBinAddr: 0x100009B60, symSize: 0x10 }
  - { offsetInCU: 0x149B3, offset: 0x149B3, size: 0x8, addend: 0x0, symName: __ZNSt3__119ostreambuf_iteratorIcNS_11char_traitsIcEEEC2B7v160006ERNS_13basic_ostreamIcS2_EE, symObjAddr: 0x5820, symBinAddr: 0x100009B70, symSize: 0x60 }
  - { offsetInCU: 0x149EB, offset: 0x149EB, size: 0x8, addend: 0x0, symName: __ZNKSt3__19basic_iosIcNS_11char_traitsIcEEE5rdbufB7v160006Ev, symObjAddr: 0x5880, symBinAddr: 0x100009BD0, symSize: 0x20 }
  - { offsetInCU: 0x14A13, offset: 0x14A13, size: 0x8, addend: 0x0, symName: __ZNKSt3__18ios_base5rdbufB7v160006Ev, symObjAddr: 0x58A0, symBinAddr: 0x100009BF0, symSize: 0x20 }
  - { offsetInCU: 0x14A39, offset: 0x14A39, size: 0x8, addend: 0x0, symName: __ZNSt3__111char_traitsIcE11eq_int_typeEii, symObjAddr: 0x58C0, symBinAddr: 0x100009C10, symSize: 0x20 }
  - { offsetInCU: 0x14A6A, offset: 0x14A6A, size: 0x8, addend: 0x0, symName: __ZNSt3__111char_traitsIcE3eofEv, symObjAddr: 0x58E0, symBinAddr: 0x100009C30, symSize: 0x10 }
  - { offsetInCU: 0x14A7E, offset: 0x14A7E, size: 0x8, addend: 0x0, symName: __ZNKSt3__19basic_iosIcNS_11char_traitsIcEEE5widenB7v160006Ec, symObjAddr: 0x58F0, symBinAddr: 0x100009C40, symSize: 0x90 }
  - { offsetInCU: 0x14AEC, offset: 0x14AEC, size: 0x8, addend: 0x0, symName: __ZNKSt3__15ctypeIcE5widenB7v160006Ec, symObjAddr: 0x59B0, symBinAddr: 0x100009D00, symSize: 0x30 }
  - { offsetInCU: 0x14B21, offset: 0x14B21, size: 0x8, addend: 0x0, symName: __ZNSt3__18ios_base8setstateB7v160006Ej, symObjAddr: 0x59E0, symBinAddr: 0x100009D30, symSize: 0x30 }
  - { offsetInCU: 0x14B58, offset: 0x14B58, size: 0x8, addend: 0x0, symName: __ZNSt3__15queueIiNS_5dequeIiNS_9allocatorIiEEEEEC2B7v160006Ev, symObjAddr: 0x5A30, symBinAddr: 0x100009D80, symSize: 0x20 }
  - { offsetInCU: 0x14B82, offset: 0x14B82, size: 0x8, addend: 0x0, symName: __ZNSt3__15dequeIiNS_9allocatorIiEEEC1B7v160006Ev, symObjAddr: 0x5A50, symBinAddr: 0x100009DA0, symSize: 0x20 }
  - { offsetInCU: 0x14BAC, offset: 0x14BAC, size: 0x8, addend: 0x0, symName: __ZNSt3__15dequeIiNS_9allocatorIiEEEC2B7v160006Ev, symObjAddr: 0x5A70, symBinAddr: 0x100009DC0, symSize: 0x80 }
  - { offsetInCU: 0x14BD6, offset: 0x14BD6, size: 0x8, addend: 0x0, symName: __ZNSt3__114__split_bufferIPiNS_9allocatorIS1_EEEC1Ev, symObjAddr: 0x5AF0, symBinAddr: 0x100009E40, symSize: 0x20 }
  - { offsetInCU: 0x14C07, offset: 0x14C07, size: 0x8, addend: 0x0, symName: __ZNSt3__117__compressed_pairImNS_9allocatorIiEEEC1B7v160006IiNS_18__default_init_tagEEEOT_OT0_, symObjAddr: 0x5B10, symBinAddr: 0x100009E60, symSize: 0x30 }
  - { offsetInCU: 0x14C5F, offset: 0x14C5F, size: 0x8, addend: 0x0, symName: __ZNSt3__114__split_bufferIPiNS_9allocatorIS1_EEEC2Ev, symObjAddr: 0x5B40, symBinAddr: 0x100009E90, symSize: 0x50 }
  - { offsetInCU: 0x14C8B, offset: 0x14C8B, size: 0x8, addend: 0x0, symName: __ZNSt3__117__compressed_pairIPPiNS_9allocatorIS1_EEEC1B7v160006IDnNS_18__default_init_tagEEEOT_OT0_, symObjAddr: 0x5B90, symBinAddr: 0x100009EE0, symSize: 0x30 }
  - { offsetInCU: 0x14CE3, offset: 0x14CE3, size: 0x8, addend: 0x0, symName: __ZNSt3__117__compressed_pairIPPiNS_9allocatorIS1_EEEC2B7v160006IDnNS_18__default_init_tagEEEOT_OT0_, symObjAddr: 0x5BC0, symBinAddr: 0x100009F10, symSize: 0x40 }
  - { offsetInCU: 0x14D3B, offset: 0x14D3B, size: 0x8, addend: 0x0, symName: __ZNSt3__122__compressed_pair_elemIPPiLi0ELb0EEC2B7v160006IDnvEEOT_, symObjAddr: 0x5C00, symBinAddr: 0x100009F50, symSize: 0x20 }
  - { offsetInCU: 0x14D7D, offset: 0x14D7D, size: 0x8, addend: 0x0, symName: __ZNSt3__122__compressed_pair_elemINS_9allocatorIPiEELi1ELb1EEC2B7v160006ENS_18__default_init_tagE, symObjAddr: 0x5C20, symBinAddr: 0x100009F70, symSize: 0x20 }
  - { offsetInCU: 0x14DB1, offset: 0x14DB1, size: 0x8, addend: 0x0, symName: __ZNSt3__19allocatorIPiEC2B7v160006Ev, symObjAddr: 0x5C40, symBinAddr: 0x100009F90, symSize: 0x20 }
  - { offsetInCU: 0x14DDB, offset: 0x14DDB, size: 0x8, addend: 0x0, symName: __ZNSt3__116__non_trivial_ifILb1ENS_9allocatorIPiEEEC2B7v160006Ev, symObjAddr: 0x5C60, symBinAddr: 0x100009FB0, symSize: 0x10 }
  - { offsetInCU: 0x14E05, offset: 0x14E05, size: 0x8, addend: 0x0, symName: __ZNSt3__117__compressed_pairImNS_9allocatorIiEEEC2B7v160006IiNS_18__default_init_tagEEEOT_OT0_, symObjAddr: 0x5C70, symBinAddr: 0x100009FC0, symSize: 0x40 }
  - { offsetInCU: 0x14E5D, offset: 0x14E5D, size: 0x8, addend: 0x0, symName: __ZNSt3__122__compressed_pair_elemImLi0ELb0EEC2B7v160006IivEEOT_, symObjAddr: 0x5CB0, symBinAddr: 0x10000A000, symSize: 0x20 }
  - { offsetInCU: 0x14E9F, offset: 0x14E9F, size: 0x8, addend: 0x0, symName: __ZNSt3__122__compressed_pair_elemINS_9allocatorIiEELi1ELb1EEC2B7v160006ENS_18__default_init_tagE, symObjAddr: 0x5CD0, symBinAddr: 0x10000A020, symSize: 0x20 }
  - { offsetInCU: 0x14ED3, offset: 0x14ED3, size: 0x8, addend: 0x0, symName: __ZNSt3__19allocatorIiEC2B7v160006Ev, symObjAddr: 0x5CF0, symBinAddr: 0x10000A040, symSize: 0x20 }
  - { offsetInCU: 0x14EFD, offset: 0x14EFD, size: 0x8, addend: 0x0, symName: __ZNSt3__116__non_trivial_ifILb1ENS_9allocatorIiEEEC2B7v160006Ev, symObjAddr: 0x5D10, symBinAddr: 0x10000A060, symSize: 0x10 }
  - { offsetInCU: 0x14F27, offset: 0x14F27, size: 0x8, addend: 0x0, symName: __ZNSt3__15dequeIiNS_9allocatorIiEEEaSERKS3_, symObjAddr: 0x5D20, symBinAddr: 0x10000A070, symSize: 0x80 }
  - { offsetInCU: 0x14F5E, offset: 0x14F5E, size: 0x8, addend: 0x0, symName: __ZNSt3__15dequeIiNS_9allocatorIiEEE19__copy_assign_allocB7v160006ERKS3_, symObjAddr: 0x5DA0, symBinAddr: 0x10000A0F0, symSize: 0x30 }
  - { offsetInCU: 0x14F98, offset: 0x14F98, size: 0x8, addend: 0x0, symName: __ZNSt3__15dequeIiNS_9allocatorIiEEE6assignINS_16__deque_iteratorIiPKiRS6_PKS7_lLl1024EEEEEvT_SC_PNS_9enable_ifIXsr33__is_cpp17_random_access_iteratorISC_EE5valueEvE4typeE, symObjAddr: 0x5DD0, symBinAddr: 0x10000A120, symSize: 0x200 }
  - { offsetInCU: 0x15010, offset: 0x15010, size: 0x8, addend: 0x0, symName: __ZNKSt3__15dequeIiNS_9allocatorIiEEE5beginB7v160006Ev, symObjAddr: 0x5FD0, symBinAddr: 0x10000A320, symSize: 0xA0 }
  - { offsetInCU: 0x15045, offset: 0x15045, size: 0x8, addend: 0x0, symName: __ZNKSt3__15dequeIiNS_9allocatorIiEEE3endB7v160006Ev, symObjAddr: 0x6070, symBinAddr: 0x10000A3C0, symSize: 0xB0 }
  - { offsetInCU: 0x15089, offset: 0x15089, size: 0x8, addend: 0x0, symName: __ZNSt3__15dequeIiNS_9allocatorIiEEE19__copy_assign_allocB7v160006ERKS3_NS_17integral_constantIbLb0EEE, symObjAddr: 0x6120, symBinAddr: 0x10000A470, symSize: 0x10 }
  - { offsetInCU: 0x150C7, offset: 0x150C7, size: 0x8, addend: 0x0, symName: __ZNKSt3__116__deque_iteratorIiPKiRS1_PKS2_lLl1024EEplB7v160006El, symObjAddr: 0x61D0, symBinAddr: 0x10000A520, symSize: 0x40 }
  - { offsetInCU: 0x1510B, offset: 0x1510B, size: 0x8, addend: 0x0, symName: __ZNSt3__15dequeIiNS_9allocatorIiEEE8__appendINS_16__deque_iteratorIiPKiRS6_PKS7_lLl1024EEEEEvT_SC_PNS_9enable_ifIXsr27__is_cpp17_forward_iteratorISC_EE5valueEvE4typeE, symObjAddr: 0x6290, symBinAddr: 0x10000A5E0, symSize: 0x2A0 }
  - { offsetInCU: 0x151F9, offset: 0x151F9, size: 0x8, addend: 0x0, symName: __ZNSt3__15dequeIiNS_9allocatorIiEEE14__erase_to_endENS_16__deque_iteratorIiPKiRS5_PKS6_lLl1024EEE, symObjAddr: 0x6530, symBinAddr: 0x10000A880, symSize: 0x160 }
  - { offsetInCU: 0x152AF, offset: 0x152AF, size: 0x8, addend: 0x0, symName: __ZNSt3__116__deque_iteratorIiPKiRS1_PKS2_lLl1024EEC1B7v160006IPiRiPS8_EERKNS0_IiT_T0_T1_lLl1024EEEPNS_9enable_ifIXsr14is_convertibleISB_S2_EE5valueEvE4typeE, symObjAddr: 0x6690, symBinAddr: 0x10000A9E0, symSize: 0x30 }
  - { offsetInCU: 0x1530F, offset: 0x1530F, size: 0x8, addend: 0x0, symName: __ZNSt3__116__deque_iteratorIiPKiRS1_PKS2_lLl1024EEpLB7v160006El, symObjAddr: 0x6720, symBinAddr: 0x10000AA70, symSize: 0x100 }
  - { offsetInCU: 0x15389, offset: 0x15389, size: 0x8, addend: 0x0, symName: __ZNKSt3__111__copy_loopINS_17_ClassicAlgPolicyEEclB7v160006INS_16__deque_iteratorIiPKiRS5_PKS6_lLl1024EEENS4_IiPiRiPSB_lLl1024EEELi0EEENS_4pairIT_T0_EESG_SG_SH_, symObjAddr: 0x6C00, symBinAddr: 0x10000AF50, symSize: 0x320 }
  - { offsetInCU: 0x15444, offset: 0x15444, size: 0x8, addend: 0x0, symName: __ZNSt3__14pairINS_16__deque_iteratorIiPKiRS2_PKS3_lLl1024EEES7_EC1B7v160006ERKS7_SA_, symObjAddr: 0x70E0, symBinAddr: 0x10000B430, symSize: 0x30 }
  - { offsetInCU: 0x1548A, offset: 0x1548A, size: 0x8, addend: 0x0, symName: __ZNSt3__14pairINS_16__deque_iteratorIiPKiRS2_PKS3_lLl1024EEES7_EC2B7v160006ERKS7_SA_, symObjAddr: 0x7110, symBinAddr: 0x10000B460, symSize: 0x40 }
  - { offsetInCU: 0x154D0, offset: 0x154D0, size: 0x8, addend: 0x0, symName: __ZNSt3__118__unwrap_iter_implINS_16__deque_iteratorIiPKiRS2_PKS3_lLl1024EEELb0EE8__unwrapB7v160006ES7_, symObjAddr: 0x7150, symBinAddr: 0x10000B4A0, symSize: 0x20 }
  - { offsetInCU: 0x154F3, offset: 0x154F3, size: 0x8, addend: 0x0, symName: __ZNSt3__127__segmented_iterator_traitsINS_16__deque_iteratorIiPKiRS2_PKS3_lLl1024EEEE9__segmentB7v160006ES7_, symObjAddr: 0x7170, symBinAddr: 0x10000B4C0, symSize: 0x20 }
  - { offsetInCU: 0x15517, offset: 0x15517, size: 0x8, addend: 0x0, symName: __ZNSt3__127__segmented_iterator_traitsINS_16__deque_iteratorIiPKiRS2_PKS3_lLl1024EEEE7__localB7v160006ES7_, symObjAddr: 0x71E0, symBinAddr: 0x10000B530, symSize: 0x20 }
  - { offsetInCU: 0x1553B, offset: 0x1553B, size: 0x8, addend: 0x0, symName: __ZNSt3__127__segmented_iterator_traitsINS_16__deque_iteratorIiPKiRS2_PKS3_lLl1024EEEE5__endB7v160006ES6_, symObjAddr: 0x7230, symBinAddr: 0x10000B580, symSize: 0x20 }
  - { offsetInCU: 0x1555F, offset: 0x1555F, size: 0x8, addend: 0x0, symName: __ZNSt3__127__segmented_iterator_traitsINS_16__deque_iteratorIiPKiRS2_PKS3_lLl1024EEEE7__beginB7v160006ES6_, symObjAddr: 0x7250, symBinAddr: 0x10000B5A0, symSize: 0x20 }
  - { offsetInCU: 0x155A1, offset: 0x155A1, size: 0x8, addend: 0x0, symName: __ZNSt3__111__copy_loopINS_17_ClassicAlgPolicyEEclB7v160006IPKiNS_16__deque_iteratorIiPiRiPS7_lLl1024EEELi0EEENS_4pairIT_T0_EESC_SC_SD_, symObjAddr: 0x7470, symBinAddr: 0x10000B7C0, symSize: 0x180 }
  - { offsetInCU: 0x1567A, offset: 0x1567A, size: 0x8, addend: 0x0, symName: __ZNSt3__14pairIPKiS2_EC1B7v160006ERKS2_S5_, symObjAddr: 0x76A0, symBinAddr: 0x10000B9F0, symSize: 0x30 }
  - { offsetInCU: 0x156C0, offset: 0x156C0, size: 0x8, addend: 0x0, symName: __ZNSt3__14pairIPKiS2_EC2B7v160006ERKS2_S5_, symObjAddr: 0x76D0, symBinAddr: 0x10000BA20, symSize: 0x30 }
  - { offsetInCU: 0x15706, offset: 0x15706, size: 0x8, addend: 0x0, symName: __ZNSt3__118__unwrap_iter_implIPKiLb1EE8__unwrapB7v160006ES2_, symObjAddr: 0x7700, symBinAddr: 0x10000BA50, symSize: 0x20 }
  - { offsetInCU: 0x15729, offset: 0x15729, size: 0x8, addend: 0x0, symName: __ZNSt3__127__segmented_iterator_traitsINS_16__deque_iteratorIiPiRiPS2_lLl1024EEEE7__localB7v160006ES5_, symObjAddr: 0x7730, symBinAddr: 0x10000BA80, symSize: 0x20 }
  - { offsetInCU: 0x1574D, offset: 0x1574D, size: 0x8, addend: 0x0, symName: __ZNSt3__127__segmented_iterator_traitsINS_16__deque_iteratorIiPiRiPS2_lLl1024EEEE9__segmentB7v160006ES5_, symObjAddr: 0x7750, symBinAddr: 0x10000BAA0, symSize: 0x20 }
  - { offsetInCU: 0x15771, offset: 0x15771, size: 0x8, addend: 0x0, symName: __ZNSt3__127__segmented_iterator_traitsINS_16__deque_iteratorIiPiRiPS2_lLl1024EEEE5__endB7v160006ES4_, symObjAddr: 0x7770, symBinAddr: 0x10000BAC0, symSize: 0x20 }
  - { offsetInCU: 0x15795, offset: 0x15795, size: 0x8, addend: 0x0, symName: __ZNSt3__127__segmented_iterator_traitsINS_16__deque_iteratorIiPiRiPS2_lLl1024EEEE9__composeB7v160006ES4_S2_, symObjAddr: 0x7800, symBinAddr: 0x10000BB50, symSize: 0x80 }
  - { offsetInCU: 0x157C8, offset: 0x157C8, size: 0x8, addend: 0x0, symName: __ZNSt3__127__segmented_iterator_traitsINS_16__deque_iteratorIiPiRiPS2_lLl1024EEEE7__beginB7v160006ES4_, symObjAddr: 0x7880, symBinAddr: 0x10000BBD0, symSize: 0x20 }
  - { offsetInCU: 0x15800, offset: 0x15800, size: 0x8, addend: 0x0, symName: __ZNKSt3__16__lessIllEclB7v160006ERKlS3_, symObjAddr: 0x78F0, symBinAddr: 0x10000BC40, symSize: 0x30 }
  - { offsetInCU: 0x15865, offset: 0x15865, size: 0x8, addend: 0x0, symName: __ZNKSt3__114__copy_trivialclB7v160006IKiiLi0EEENS_4pairIPT_PT0_EES5_S5_S7_, symObjAddr: 0x7A30, symBinAddr: 0x10000BD80, symSize: 0x40 }
  - { offsetInCU: 0x158CD, offset: 0x158CD, size: 0x8, addend: 0x0, symName: __ZNSt3__14pairIPKiPiEC1B7v160006ERKS2_RKS3_, symObjAddr: 0x7BB0, symBinAddr: 0x10000BF00, symSize: 0x30 }
  - { offsetInCU: 0x15913, offset: 0x15913, size: 0x8, addend: 0x0, symName: __ZNSt3__14pairIPKiPiEC2B7v160006ERKS2_RKS3_, symObjAddr: 0x7BE0, symBinAddr: 0x10000BF30, symSize: 0x30 }
  - { offsetInCU: 0x15959, offset: 0x15959, size: 0x8, addend: 0x0, symName: __ZNSt3__118__unwrap_iter_implIPiLb1EE8__unwrapB7v160006ES1_, symObjAddr: 0x7C10, symBinAddr: 0x10000BF60, symSize: 0x20 }
  - { offsetInCU: 0x1597C, offset: 0x1597C, size: 0x8, addend: 0x0, symName: __ZNSt3__118__unwrap_iter_implIPiLb1EE8__rewrapB7v160006ES1_S1_, symObjAddr: 0x7C40, symBinAddr: 0x10000BF90, symSize: 0x50 }
  - { offsetInCU: 0x159AD, offset: 0x159AD, size: 0x8, addend: 0x0, symName: __ZNSt3__14pairIPKiNS_16__deque_iteratorIiPiRiPS4_lLl1024EEEEC1B7v160006ERKS2_RKS7_, symObjAddr: 0x7C90, symBinAddr: 0x10000BFE0, symSize: 0x30 }
  - { offsetInCU: 0x159F3, offset: 0x159F3, size: 0x8, addend: 0x0, symName: __ZNSt3__14pairIPKiNS_16__deque_iteratorIiPiRiPS4_lLl1024EEEEC2B7v160006ERKS2_RKS7_, symObjAddr: 0x7CC0, symBinAddr: 0x10000C010, symSize: 0x40 }
  - { offsetInCU: 0x15A39, offset: 0x15A39, size: 0x8, addend: 0x0, symName: __ZNSt3__118__unwrap_iter_implIPKiLb1EE8__rewrapB7v160006ES2_S2_, symObjAddr: 0x7D50, symBinAddr: 0x10000C0A0, symSize: 0x50 }
  - { offsetInCU: 0x15A6A, offset: 0x15A6A, size: 0x8, addend: 0x0, symName: __ZNSt3__14pairINS_16__deque_iteratorIiPKiRS2_PKS3_lLl1024EEENS1_IiPiRiPS8_lLl1024EEEEC1B7v160006ERKS7_RKSB_, symObjAddr: 0x7DA0, symBinAddr: 0x10000C0F0, symSize: 0x30 }
  - { offsetInCU: 0x15AB0, offset: 0x15AB0, size: 0x8, addend: 0x0, symName: __ZNSt3__14pairINS_16__deque_iteratorIiPKiRS2_PKS3_lLl1024EEENS1_IiPiRiPS8_lLl1024EEEEC2B7v160006ERKS7_RKSB_, symObjAddr: 0x7DD0, symBinAddr: 0x10000C120, symSize: 0x40 }
  - { offsetInCU: 0x15AF6, offset: 0x15AF6, size: 0x8, addend: 0x0, symName: __ZNSt3__118__unwrap_iter_implINS_16__deque_iteratorIiPiRiPS2_lLl1024EEELb0EE8__unwrapB7v160006ES5_, symObjAddr: 0x7E10, symBinAddr: 0x10000C160, symSize: 0x20 }
  - { offsetInCU: 0x15B19, offset: 0x15B19, size: 0x8, addend: 0x0, symName: __ZNSt3__118__unwrap_iter_implINS_16__deque_iteratorIiPKiRS2_PKS3_lLl1024EEELb0EE8__rewrapB7v160006ES7_S7_, symObjAddr: 0x7EB0, symBinAddr: 0x10000C200, symSize: 0x30 }
  - { offsetInCU: 0x15B46, offset: 0x15B46, size: 0x8, addend: 0x0, symName: __ZNSt3__118__unwrap_iter_implINS_16__deque_iteratorIiPiRiPS2_lLl1024EEELb0EE8__rewrapB7v160006ES5_S5_, symObjAddr: 0x7EE0, symBinAddr: 0x10000C230, symSize: 0x30 }
  - { offsetInCU: 0x15B73, offset: 0x15B73, size: 0x8, addend: 0x0, symName: __ZNKSt3__15dequeIiNS_9allocatorIiEEE12__back_spareB7v160006Ev, symObjAddr: 0x7F70, symBinAddr: 0x10000C2C0, symSize: 0x50 }
  - { offsetInCU: 0x15B99, offset: 0x15B99, size: 0x8, addend: 0x0, symName: __ZNSt3__15dequeIiNS_9allocatorIiEEE19__add_back_capacityEm, symObjAddr: 0x7FC0, symBinAddr: 0x10000C310, symSize: 0x5F0 }
  - { offsetInCU: 0x15C9A, offset: 0x15C9A, size: 0x8, addend: 0x0, symName: __ZNKSt3__116__deque_iteratorIiPiRiPS1_lLl1024EEplB7v160006El, symObjAddr: 0x85B0, symBinAddr: 0x10000C900, symSize: 0x40 }
  - { offsetInCU: 0x15D01, offset: 0x15D01, size: 0x8, addend: 0x0, symName: __ZNSt3__15dequeIiNS_9allocatorIiEEE13__deque_rangeC1B7v160006ENS_16__deque_iteratorIiPiRiPS6_lLl1024EEES9_, symObjAddr: 0x85F0, symBinAddr: 0x10000C940, symSize: 0x40 }
  - { offsetInCU: 0x15D49, offset: 0x15D49, size: 0x8, addend: 0x0, symName: __ZNKSt3__15dequeIiNS_9allocatorIiEEE13__deque_range5beginB7v160006Ev, symObjAddr: 0x8630, symBinAddr: 0x10000C980, symSize: 0x30 }
  - { offsetInCU: 0x15D6F, offset: 0x15D6F, size: 0x8, addend: 0x0, symName: __ZNKSt3__15dequeIiNS_9allocatorIiEEE13__deque_range3endB7v160006Ev, symObjAddr: 0x8660, symBinAddr: 0x10000C9B0, symSize: 0x60 }
  - { offsetInCU: 0x15D95, offset: 0x15D95, size: 0x8, addend: 0x0, symName: __ZNKSt3__15dequeIiNS_9allocatorIiEEE13__deque_rangedeB7v160006Ev, symObjAddr: 0x86F0, symBinAddr: 0x10000CA40, symSize: 0x70 }
  - { offsetInCU: 0x15DCF, offset: 0x15DCF, size: 0x8, addend: 0x0, symName: __ZNSt3__15dequeIiNS_9allocatorIiEEE21_ConstructTransactionC1B7v160006EPS3_RNS3_19__deque_block_rangeE, symObjAddr: 0x8760, symBinAddr: 0x10000CAB0, symSize: 0x30 }
  - { offsetInCU: 0x15E17, offset: 0x15E17, size: 0x8, addend: 0x0, symName: __ZNSt3__116allocator_traitsINS_9allocatorIiEEE9constructB7v160006IiJRKiEvEEvRS2_PT_DpOT0_, symObjAddr: 0x8790, symBinAddr: 0x10000CAE0, symSize: 0x30 }
  - { offsetInCU: 0x15E6E, offset: 0x15E6E, size: 0x8, addend: 0x0, symName: __ZNKSt3__116__deque_iteratorIiPKiRS1_PKS2_lLl1024EEdeB7v160006Ev, symObjAddr: 0x87C0, symBinAddr: 0x10000CB10, symSize: 0x20 }
  - { offsetInCU: 0x15E94, offset: 0x15E94, size: 0x8, addend: 0x0, symName: __ZNSt3__116__deque_iteratorIiPKiRS1_PKS2_lLl1024EEppB7v160006Ev, symObjAddr: 0x87E0, symBinAddr: 0x10000CB30, symSize: 0x60 }
  - { offsetInCU: 0x15EBA, offset: 0x15EBA, size: 0x8, addend: 0x0, symName: __ZNSt3__15dequeIiNS_9allocatorIiEEE21_ConstructTransactionD1B7v160006Ev, symObjAddr: 0x8840, symBinAddr: 0x10000CB90, symSize: 0x20 }
  - { offsetInCU: 0x15EE4, offset: 0x15EE4, size: 0x8, addend: 0x0, symName: __ZNSt3__15dequeIiNS_9allocatorIiEEE13__deque_rangeppB7v160006Ev, symObjAddr: 0x8860, symBinAddr: 0x10000CBB0, symSize: 0x60 }
  - { offsetInCU: 0x15F0A, offset: 0x15F0A, size: 0x8, addend: 0x0, symName: __ZNKSt3__15dequeIiNS_9allocatorIiEEE10__capacityB7v160006Ev, symObjAddr: 0x88F0, symBinAddr: 0x10000CC40, symSize: 0x50 }
  - { offsetInCU: 0x15F30, offset: 0x15F30, size: 0x8, addend: 0x0, symName: __ZNSt3__15dequeIiNS_9allocatorIiEEE18__recommend_blocksB7v160006Em, symObjAddr: 0x8940, symBinAddr: 0x10000CC90, symSize: 0x30 }
  - { offsetInCU: 0x15F54, offset: 0x15F54, size: 0x8, addend: 0x0, symName: __ZNKSt3__15dequeIiNS_9allocatorIiEEE13__front_spareB7v160006Ev, symObjAddr: 0x8970, symBinAddr: 0x10000CCC0, symSize: 0x20 }
  - { offsetInCU: 0x15F7A, offset: 0x15F7A, size: 0x8, addend: 0x0, symName: __ZNSt3__114__split_bufferIPiNS_9allocatorIS1_EEE9push_backB7v160006ERKS1_, symObjAddr: 0x8990, symBinAddr: 0x10000CCE0, symSize: 0x2B0 }
  - { offsetInCU: 0x15FF2, offset: 0x15FF2, size: 0x8, addend: 0x0, symName: __ZNKSt3__114__split_bufferIPiNS_9allocatorIS1_EEE12__back_spareB7v160006Ev, symObjAddr: 0x8C40, symBinAddr: 0x10000CF90, symSize: 0x40 }
  - { offsetInCU: 0x16018, offset: 0x16018, size: 0x8, addend: 0x0, symName: __ZNSt3__114__split_bufferIPiNS_9allocatorIS1_EEE9push_backEOS1_, symObjAddr: 0x8C80, symBinAddr: 0x10000CFD0, symSize: 0x2B0 }
  - { offsetInCU: 0x16090, offset: 0x16090, size: 0x8, addend: 0x0, symName: __ZNSt3__116allocator_traitsINS_9allocatorIiEEE8allocateB7v160006ERS2_m, symObjAddr: 0x8F30, symBinAddr: 0x10000D280, symSize: 0x30 }
  - { offsetInCU: 0x160C3, offset: 0x160C3, size: 0x8, addend: 0x0, symName: __ZNSt3__114__split_bufferIPiNS_9allocatorIS1_EEE10push_frontEOS1_, symObjAddr: 0x8F60, symBinAddr: 0x10000D2B0, symSize: 0x280 }
  - { offsetInCU: 0x1613B, offset: 0x1613B, size: 0x8, addend: 0x0, symName: __ZNSt3__114__split_bufferIPiRNS_9allocatorIS1_EEEC1EmmS4_, symObjAddr: 0x9210, symBinAddr: 0x10000D560, symSize: 0x40 }
  - { offsetInCU: 0x16191, offset: 0x16191, size: 0x8, addend: 0x0, symName: __ZNSt3__114__split_bufferIPiRNS_9allocatorIS1_EEE9push_backEOS1_, symObjAddr: 0x9250, symBinAddr: 0x10000D5A0, symSize: 0x2B0 }
  - { offsetInCU: 0x16209, offset: 0x16209, size: 0x8, addend: 0x0, symName: __ZNSt3__114__split_bufferIPiRNS_9allocatorIS1_EEE5beginB7v160006Ev, symObjAddr: 0x9500, symBinAddr: 0x10000D850, symSize: 0x20 }
  - { offsetInCU: 0x1622F, offset: 0x1622F, size: 0x8, addend: 0x0, symName: __ZNSt3__114__split_bufferIPiRNS_9allocatorIS1_EEE3endB7v160006Ev, symObjAddr: 0x9520, symBinAddr: 0x10000D870, symSize: 0x20 }
  - { offsetInCU: 0x16255, offset: 0x16255, size: 0x8, addend: 0x0, symName: __ZNSt3__114__split_bufferIPiRNS_9allocatorIS1_EEE9push_backB7v160006ERKS1_, symObjAddr: 0x9540, symBinAddr: 0x10000D890, symSize: 0x2B0 }
  - { offsetInCU: 0x162CD, offset: 0x162CD, size: 0x8, addend: 0x0, symName: __ZNSt3__114__split_bufferIPiRNS_9allocatorIS1_EEE10push_frontERKS1_, symObjAddr: 0x97F0, symBinAddr: 0x10000DB40, symSize: 0x280 }
  - { offsetInCU: 0x16345, offset: 0x16345, size: 0x8, addend: 0x0, symName: __ZNSt3__114__split_bufferIPiNS_9allocatorIS1_EEE9__end_capB7v160006Ev, symObjAddr: 0x9AB0, symBinAddr: 0x10000DE00, symSize: 0x20 }
  - { offsetInCU: 0x1636B, offset: 0x1636B, size: 0x8, addend: 0x0, symName: __ZNSt3__114__split_bufferIPiRNS_9allocatorIS1_EEE9__end_capB7v160006Ev, symObjAddr: 0x9AD0, symBinAddr: 0x10000DE20, symSize: 0x20 }
  - { offsetInCU: 0x16391, offset: 0x16391, size: 0x8, addend: 0x0, symName: __ZNSt3__114__split_bufferIPiRNS_9allocatorIS1_EEED1Ev, symObjAddr: 0x9AF0, symBinAddr: 0x10000DE40, symSize: 0x20 }
  - { offsetInCU: 0x163BD, offset: 0x163BD, size: 0x8, addend: 0x0, symName: __ZNSt3__114__split_bufferIPiRNS_9allocatorIS1_EEE18__construct_at_endINS_13move_iteratorIPS1_EEEENS_9enable_ifIXsr27__is_cpp17_forward_iteratorIT_EE5valueEvE4typeESB_SB_, symObjAddr: 0x9B50, symBinAddr: 0x10000DEA0, symSize: 0x110 }
  - { offsetInCU: 0x16419, offset: 0x16419, size: 0x8, addend: 0x0, symName: __ZNSt3__113move_iteratorIPPiEC1B7v160006ES2_, symObjAddr: 0x9C60, symBinAddr: 0x10000DFB0, symSize: 0x30 }
  - { offsetInCU: 0x16451, offset: 0x16451, size: 0x8, addend: 0x0, symName: __ZNSt3__116allocator_traitsINS_9allocatorIPiEEE9constructB7v160006IS2_JRKS2_EvEEvRS3_PT_DpOT0_, symObjAddr: 0x9C90, symBinAddr: 0x10000DFE0, symSize: 0x30 }
  - { offsetInCU: 0x164CB, offset: 0x164CB, size: 0x8, addend: 0x0, symName: __ZNKSt3__114__move_trivialclB7v160006IPiS2_Li0EEENS_4pairIPT_PT0_EES5_S5_S7_, symObjAddr: 0x9E60, symBinAddr: 0x10000E1B0, symSize: 0x40 }
  - { offsetInCU: 0x16533, offset: 0x16533, size: 0x8, addend: 0x0, symName: __ZNSt3__14pairIPPiS2_EC1B7v160006ERKS2_S5_, symObjAddr: 0xA010, symBinAddr: 0x10000E360, symSize: 0x30 }
  - { offsetInCU: 0x16579, offset: 0x16579, size: 0x8, addend: 0x0, symName: __ZNSt3__14pairIPPiS2_EC2B7v160006ERKS2_S5_, symObjAddr: 0xA040, symBinAddr: 0x10000E390, symSize: 0x30 }
  - { offsetInCU: 0x165BF, offset: 0x165BF, size: 0x8, addend: 0x0, symName: __ZNSt3__118__unwrap_iter_implIPPiLb1EE8__unwrapB7v160006ES2_, symObjAddr: 0xA070, symBinAddr: 0x10000E3C0, symSize: 0x20 }
  - { offsetInCU: 0x165E2, offset: 0x165E2, size: 0x8, addend: 0x0, symName: __ZNSt3__118__unwrap_iter_implIPPiLb1EE8__rewrapB7v160006ES2_S2_, symObjAddr: 0xA090, symBinAddr: 0x10000E3E0, symSize: 0x50 }
  - { offsetInCU: 0x1661D, offset: 0x1661D, size: 0x8, addend: 0x0, symName: __ZNSt3__114__split_bufferIPiRNS_9allocatorIS1_EEE21_ConstructTransactionC1B7v160006EPPS1_m, symObjAddr: 0xA120, symBinAddr: 0x10000E470, symSize: 0x30 }
  - { offsetInCU: 0x16663, offset: 0x16663, size: 0x8, addend: 0x0, symName: __ZNSt3__116allocator_traitsINS_9allocatorIPiEEE9constructB7v160006IS2_JS2_EvEEvRS3_PT_DpOT0_, symObjAddr: 0xA150, symBinAddr: 0x10000E4A0, symSize: 0x30 }
  - { offsetInCU: 0x166BA, offset: 0x166BA, size: 0x8, addend: 0x0, symName: __ZNSt3__114__split_bufferIPiRNS_9allocatorIS1_EEE7__allocB7v160006Ev, symObjAddr: 0xA180, symBinAddr: 0x10000E4D0, symSize: 0x20 }
  - { offsetInCU: 0x166E0, offset: 0x166E0, size: 0x8, addend: 0x0, symName: __ZNKSt3__113move_iteratorIPPiEdeB7v160006Ev, symObjAddr: 0xA1A0, symBinAddr: 0x10000E4F0, symSize: 0x20 }
  - { offsetInCU: 0x16706, offset: 0x16706, size: 0x8, addend: 0x0, symName: __ZNSt3__113move_iteratorIPPiEppB7v160006Ev, symObjAddr: 0xA1C0, symBinAddr: 0x10000E510, symSize: 0x20 }
  - { offsetInCU: 0x1672C, offset: 0x1672C, size: 0x8, addend: 0x0, symName: __ZNSt3__114__split_bufferIPiRNS_9allocatorIS1_EEE21_ConstructTransactionD1B7v160006Ev, symObjAddr: 0xA1E0, symBinAddr: 0x10000E530, symSize: 0x20 }
  - { offsetInCU: 0x16756, offset: 0x16756, size: 0x8, addend: 0x0, symName: __ZNKSt3__113move_iteratorIPPiE4baseB7v160006Ev, symObjAddr: 0xA270, symBinAddr: 0x10000E5C0, symSize: 0x20 }
  - { offsetInCU: 0x1677C, offset: 0x1677C, size: 0x8, addend: 0x0, symName: __ZNSt3__114__split_bufferIPiRNS_9allocatorIS1_EEE21_ConstructTransactionC2B7v160006EPPS1_m, symObjAddr: 0xA290, symBinAddr: 0x10000E5E0, symSize: 0x40 }
  - { offsetInCU: 0x167C2, offset: 0x167C2, size: 0x8, addend: 0x0, symName: __ZNSt3__19allocatorIPiE9constructB7v160006IS1_JS1_EEEvPT_DpOT0_, symObjAddr: 0xA2D0, symBinAddr: 0x10000E620, symSize: 0x20 }
  - { offsetInCU: 0x16818, offset: 0x16818, size: 0x8, addend: 0x0, symName: __ZNSt3__117__compressed_pairIPPiRNS_9allocatorIS1_EEE6secondB7v160006Ev, symObjAddr: 0xA2F0, symBinAddr: 0x10000E640, symSize: 0x20 }
  - { offsetInCU: 0x1683E, offset: 0x1683E, size: 0x8, addend: 0x0, symName: __ZNSt3__122__compressed_pair_elemIRNS_9allocatorIPiEELi1ELb0EE5__getB7v160006Ev, symObjAddr: 0xA310, symBinAddr: 0x10000E660, symSize: 0x20 }
  - { offsetInCU: 0x16864, offset: 0x16864, size: 0x8, addend: 0x0, symName: __ZNSt3__114__split_bufferIPiRNS_9allocatorIS1_EEE21_ConstructTransactionD2B7v160006Ev, symObjAddr: 0xA330, symBinAddr: 0x10000E680, symSize: 0x20 }
  - { offsetInCU: 0x1688E, offset: 0x1688E, size: 0x8, addend: 0x0, symName: __ZNSt3__113move_iteratorIPPiEC2B7v160006ES2_, symObjAddr: 0xA350, symBinAddr: 0x10000E6A0, symSize: 0x20 }
  - { offsetInCU: 0x168C6, offset: 0x168C6, size: 0x8, addend: 0x0, symName: __ZNSt3__19allocatorIPiE9constructB7v160006IS1_JRKS1_EEEvPT_DpOT0_, symObjAddr: 0xA370, symBinAddr: 0x10000E6C0, symSize: 0x20 }
  - { offsetInCU: 0x1691C, offset: 0x1691C, size: 0x8, addend: 0x0, symName: __ZNSt3__19allocatorIiE8allocateB7v160006Em, symObjAddr: 0xA390, symBinAddr: 0x10000E6E0, symSize: 0x80 }
  - { offsetInCU: 0x1695A, offset: 0x1695A, size: 0x8, addend: 0x0, symName: __ZNSt3__116allocator_traitsINS_9allocatorIiEEE8max_sizeB7v160006IS2_vEEmRKS2_, symObjAddr: 0xA410, symBinAddr: 0x10000E760, symSize: 0x20 }
  - { offsetInCU: 0x16988, offset: 0x16988, size: 0x8, addend: 0x0, symName: __ZNKSt3__19allocatorIiE8max_sizeB7v160006Ev, symObjAddr: 0xA430, symBinAddr: 0x10000E780, symSize: 0x20 }
  - { offsetInCU: 0x169B8, offset: 0x169B8, size: 0x8, addend: 0x0, symName: __ZNKSt3__123__move_backward_trivialclB7v160006IPiS2_Li0EEENS_4pairIPT_PT0_EES5_S5_S7_, symObjAddr: 0xA5E0, symBinAddr: 0x10000E930, symSize: 0x40 }
  - { offsetInCU: 0x16A20, offset: 0x16A20, size: 0x8, addend: 0x0, symName: __ZNSt3__114__split_bufferIPiRNS_9allocatorIS1_EEEC2EmmS4_, symObjAddr: 0xA720, symBinAddr: 0x10000EA70, symSize: 0xD0 }
  - { offsetInCU: 0x16A93, offset: 0x16A93, size: 0x8, addend: 0x0, symName: __ZNSt3__117__compressed_pairIPPiRNS_9allocatorIS1_EEEC1B7v160006IDnS5_EEOT_OT0_, symObjAddr: 0xA7F0, symBinAddr: 0x10000EB40, symSize: 0x30 }
  - { offsetInCU: 0x16AEB, offset: 0x16AEB, size: 0x8, addend: 0x0, symName: __ZNSt3__117__compressed_pairIPPiRNS_9allocatorIS1_EEEC2B7v160006IDnS5_EEOT_OT0_, symObjAddr: 0xA860, symBinAddr: 0x10000EBB0, symSize: 0x40 }
  - { offsetInCU: 0x16B43, offset: 0x16B43, size: 0x8, addend: 0x0, symName: __ZNSt3__122__compressed_pair_elemIRNS_9allocatorIPiEELi1ELb0EEC2B7v160006IS4_vEEOT_, symObjAddr: 0xA8A0, symBinAddr: 0x10000EBF0, symSize: 0x20 }
  - { offsetInCU: 0x16B85, offset: 0x16B85, size: 0x8, addend: 0x0, symName: __ZNSt3__19allocatorIPiE8allocateB7v160006Em, symObjAddr: 0xA8C0, symBinAddr: 0x10000EC10, symSize: 0x80 }
  - { offsetInCU: 0x16BC3, offset: 0x16BC3, size: 0x8, addend: 0x0, symName: __ZNSt3__116allocator_traitsINS_9allocatorIPiEEE8max_sizeB7v160006IS3_vEEmRKS3_, symObjAddr: 0xA940, symBinAddr: 0x10000EC90, symSize: 0x20 }
  - { offsetInCU: 0x16BF1, offset: 0x16BF1, size: 0x8, addend: 0x0, symName: __ZNKSt3__19allocatorIPiE8max_sizeB7v160006Ev, symObjAddr: 0xA960, symBinAddr: 0x10000ECB0, symSize: 0x20 }
  - { offsetInCU: 0x16C17, offset: 0x16C17, size: 0x8, addend: 0x0, symName: __ZNSt3__117__compressed_pairIPPiNS_9allocatorIS1_EEE5firstB7v160006Ev, symObjAddr: 0xA980, symBinAddr: 0x10000ECD0, symSize: 0x20 }
  - { offsetInCU: 0x16C3D, offset: 0x16C3D, size: 0x8, addend: 0x0, symName: __ZNSt3__122__compressed_pair_elemIPPiLi0ELb0EE5__getB7v160006Ev, symObjAddr: 0xA9A0, symBinAddr: 0x10000ECF0, symSize: 0x10 }
  - { offsetInCU: 0x16C63, offset: 0x16C63, size: 0x8, addend: 0x0, symName: __ZNSt3__117__compressed_pairIPPiRNS_9allocatorIS1_EEE5firstB7v160006Ev, symObjAddr: 0xA9B0, symBinAddr: 0x10000ED00, symSize: 0x20 }
  - { offsetInCU: 0x16C89, offset: 0x16C89, size: 0x8, addend: 0x0, symName: __ZNSt3__114__split_bufferIPiRNS_9allocatorIS1_EEED2Ev, symObjAddr: 0xA9D0, symBinAddr: 0x10000ED20, symSize: 0x60 }
  - { offsetInCU: 0x16CB5, offset: 0x16CB5, size: 0x8, addend: 0x0, symName: __ZNSt3__114__split_bufferIPiRNS_9allocatorIS1_EEE5clearB7v160006Ev, symObjAddr: 0xAA30, symBinAddr: 0x10000ED80, symSize: 0x20 }
  - { offsetInCU: 0x16CDB, offset: 0x16CDB, size: 0x8, addend: 0x0, symName: __ZNKSt3__114__split_bufferIPiRNS_9allocatorIS1_EEE8capacityB7v160006Ev, symObjAddr: 0xAA50, symBinAddr: 0x10000EDA0, symSize: 0x30 }
  - { offsetInCU: 0x16D01, offset: 0x16D01, size: 0x8, addend: 0x0, symName: __ZNSt3__114__split_bufferIPiRNS_9allocatorIS1_EEE17__destruct_at_endB7v160006EPS1_, symObjAddr: 0xAA80, symBinAddr: 0x10000EDD0, symSize: 0x30 }
  - { offsetInCU: 0x16D35, offset: 0x16D35, size: 0x8, addend: 0x0, symName: __ZNSt3__114__split_bufferIPiRNS_9allocatorIS1_EEE17__destruct_at_endB7v160006EPS1_NS_17integral_constantIbLb0EEE, symObjAddr: 0xAAB0, symBinAddr: 0x10000EE00, symSize: 0x80 }
  - { offsetInCU: 0x16D75, offset: 0x16D75, size: 0x8, addend: 0x0, symName: __ZNKSt3__114__split_bufferIPiRNS_9allocatorIS1_EEE9__end_capB7v160006Ev, symObjAddr: 0xAB30, symBinAddr: 0x10000EE80, symSize: 0x20 }
  - { offsetInCU: 0x16D9B, offset: 0x16D9B, size: 0x8, addend: 0x0, symName: __ZNKSt3__117__compressed_pairIPPiRNS_9allocatorIS1_EEE5firstB7v160006Ev, symObjAddr: 0xAB50, symBinAddr: 0x10000EEA0, symSize: 0x20 }
  - { offsetInCU: 0x16DC1, offset: 0x16DC1, size: 0x8, addend: 0x0, symName: __ZNSt3__116__deque_iteratorIiPiRiPS1_lLl1024EEpLB7v160006El, symObjAddr: 0xAB70, symBinAddr: 0x10000EEC0, symSize: 0x100 }
  - { offsetInCU: 0x16E13, offset: 0x16E13, size: 0x8, addend: 0x0, symName: __ZNSt3__15dequeIiNS_9allocatorIiEEE13__deque_rangeC2B7v160006ENS_16__deque_iteratorIiPiRiPS6_lLl1024EEES9_, symObjAddr: 0xAC70, symBinAddr: 0x10000EFC0, symSize: 0x40 }
  - { offsetInCU: 0x16E5B, offset: 0x16E5B, size: 0x8, addend: 0x0, symName: __ZNSt3__15dequeIiNS_9allocatorIiEEE19__deque_block_rangeC1B7v160006EPiS5_, symObjAddr: 0xACE0, symBinAddr: 0x10000F030, symSize: 0x30 }
  - { offsetInCU: 0x16EA3, offset: 0x16EA3, size: 0x8, addend: 0x0, symName: __ZNSt3__15dequeIiNS_9allocatorIiEEE19__deque_block_rangeC2B7v160006EPiS5_, symObjAddr: 0xAD10, symBinAddr: 0x10000F060, symSize: 0x30 }
  - { offsetInCU: 0x16EEB, offset: 0x16EEB, size: 0x8, addend: 0x0, symName: __ZNSt3__15dequeIiNS_9allocatorIiEEE21_ConstructTransactionC2B7v160006EPS3_RNS3_19__deque_block_rangeE, symObjAddr: 0xAD40, symBinAddr: 0x10000F090, symSize: 0x40 }
  - { offsetInCU: 0x16F33, offset: 0x16F33, size: 0x8, addend: 0x0, symName: __ZNSt3__19allocatorIiE9constructB7v160006IiJRKiEEEvPT_DpOT0_, symObjAddr: 0xAD80, symBinAddr: 0x10000F0D0, symSize: 0x20 }
  - { offsetInCU: 0x16F89, offset: 0x16F89, size: 0x8, addend: 0x0, symName: __ZNSt3__15dequeIiNS_9allocatorIiEEE21_ConstructTransactionD2B7v160006Ev, symObjAddr: 0xADA0, symBinAddr: 0x10000F0F0, symSize: 0x40 }
  - { offsetInCU: 0x16FB3, offset: 0x16FB3, size: 0x8, addend: 0x0, symName: __ZNSt3__15dequeIiNS_9allocatorIiEEE25__maybe_remove_back_spareB7v160006Eb, symObjAddr: 0xADE0, symBinAddr: 0x10000F130, symSize: 0xA0 }
  - { offsetInCU: 0x16FE8, offset: 0x16FE8, size: 0x8, addend: 0x0, symName: __ZNKSt3__15dequeIiNS_9allocatorIiEEE19__back_spare_blocksB7v160006Ev, symObjAddr: 0xAE80, symBinAddr: 0x10000F1D0, symSize: 0x20 }
  - { offsetInCU: 0x1700E, offset: 0x1700E, size: 0x8, addend: 0x0, symName: __ZNSt3__114__split_bufferIPiNS_9allocatorIS1_EEE4backB7v160006Ev, symObjAddr: 0xAEA0, symBinAddr: 0x10000F1F0, symSize: 0x20 }
  - { offsetInCU: 0x17034, offset: 0x17034, size: 0x8, addend: 0x0, symName: __ZNSt3__114__split_bufferIPiNS_9allocatorIS1_EEE8pop_backB7v160006Ev, symObjAddr: 0xAEC0, symBinAddr: 0x10000F210, symSize: 0x30 }
  - { offsetInCU: 0x1705A, offset: 0x1705A, size: 0x8, addend: 0x0, symName: __ZNSt3__116__deque_iteratorIiPKiRS1_PKS2_lLl1024EEC2B7v160006IPiRiPS8_EERKNS0_IiT_T0_T1_lLl1024EEEPNS_9enable_ifIXsr14is_convertibleISB_S2_EE5valueEvE4typeE, symObjAddr: 0xAEF0, symBinAddr: 0x10000F240, symSize: 0x30 }
  - { offsetInCU: 0x170BA, offset: 0x170BA, size: 0x8, addend: 0x0, symName: __ZNKSt3__114__split_bufferIPiNS_9allocatorIS1_EEE5beginB7v160006Ev, symObjAddr: 0xAF20, symBinAddr: 0x10000F270, symSize: 0x20 }
  - { offsetInCU: 0x170E0, offset: 0x170E0, size: 0x8, addend: 0x0, symName: __ZNSt3__116__deque_iteratorIiPKiRS1_PKS2_lLl1024EEC1B7v160006ES5_S2_, symObjAddr: 0xAF40, symBinAddr: 0x10000F290, symSize: 0x30 }
  - { offsetInCU: 0x17128, offset: 0x17128, size: 0x8, addend: 0x0, symName: __ZNSt3__116__deque_iteratorIiPKiRS1_PKS2_lLl1024EEC2B7v160006ES5_S2_, symObjAddr: 0xAF70, symBinAddr: 0x10000F2C0, symSize: 0x30 }
  - { offsetInCU: 0x17170, offset: 0x17170, size: 0x8, addend: 0x0, symName: __ZNSt3__16vectorI11InstructionNS_9allocatorIS1_EEE11__make_iterB7v160006EPS1_, symObjAddr: 0xAFA0, symBinAddr: 0x10000F2F0, symSize: 0x30 }
  - { offsetInCU: 0x171A5, offset: 0x171A5, size: 0x8, addend: 0x0, symName: __ZNSt3__111__wrap_iterIP11InstructionEC1B7v160006EPKvS2_, symObjAddr: 0xAFD0, symBinAddr: 0x10000F320, symSize: 0x30 }
  - { offsetInCU: 0x171EB, offset: 0x171EB, size: 0x8, addend: 0x0, symName: __ZNSt3__111__wrap_iterIP11InstructionEC2B7v160006EPKvS2_, symObjAddr: 0xB000, symBinAddr: 0x10000F350, symSize: 0x20 }
  - { offsetInCU: 0x17231, offset: 0x17231, size: 0x8, addend: 0x0, symName: __ZNKSt3__111__wrap_iterIP11InstructionE4baseB7v160006Ev, symObjAddr: 0xB060, symBinAddr: 0x10000F3B0, symSize: 0x20 }
  - { offsetInCU: 0x17257, offset: 0x17257, size: 0x8, addend: 0x0, symName: __ZNSt3__15dequeIiNS_9allocatorIiEEE19__add_back_capacityEv, symObjAddr: 0xB080, symBinAddr: 0x10000F3D0, symSize: 0x3A0 }
  - { offsetInCU: 0x17311, offset: 0x17311, size: 0x8, addend: 0x0, symName: __ZNSt3__122__allocator_destructorINS_9allocatorIiEEEC1B7v160006ERS2_m, symObjAddr: 0xB420, symBinAddr: 0x10000F770, symSize: 0x30 }
  - { offsetInCU: 0x173D9, offset: 0x173D9, size: 0x8, addend: 0x0, symName: __ZNSt3__110unique_ptrIPiNS_22__allocator_destructorINS_9allocatorIiEEEEEC1B7v160006ILb1EvEES1_NS_16__dependent_typeINS_27__unique_ptr_deleter_sfinaeIS5_EEXT_EE20__good_rval_ref_typeE, symObjAddr: 0xB450, symBinAddr: 0x10000F7A0, symSize: 0x30 }
  - { offsetInCU: 0x1742A, offset: 0x1742A, size: 0x8, addend: 0x0, symName: __ZNKSt3__110unique_ptrIPiNS_22__allocator_destructorINS_9allocatorIiEEEEE3getB7v160006Ev, symObjAddr: 0xB480, symBinAddr: 0x10000F7D0, symSize: 0x20 }
  - { offsetInCU: 0x17450, offset: 0x17450, size: 0x8, addend: 0x0, symName: __ZNSt3__110unique_ptrIPiNS_22__allocator_destructorINS_9allocatorIiEEEEE7releaseB7v160006Ev, symObjAddr: 0xB4A0, symBinAddr: 0x10000F7F0, symSize: 0x40 }
  - { offsetInCU: 0x17485, offset: 0x17485, size: 0x8, addend: 0x0, symName: __ZNSt3__110unique_ptrIPiNS_22__allocator_destructorINS_9allocatorIiEEEEED1B7v160006Ev, symObjAddr: 0xB4E0, symBinAddr: 0x10000F830, symSize: 0x20 }
  - { offsetInCU: 0x174AF, offset: 0x174AF, size: 0x8, addend: 0x0, symName: __ZNSt3__122__allocator_destructorINS_9allocatorIiEEEC2B7v160006ERS2_m, symObjAddr: 0xB500, symBinAddr: 0x10000F850, symSize: 0x30 }
  - { offsetInCU: 0x174F5, offset: 0x174F5, size: 0x8, addend: 0x0, symName: __ZNSt3__110unique_ptrIPiNS_22__allocator_destructorINS_9allocatorIiEEEEEC2B7v160006ILb1EvEES1_NS_16__dependent_typeINS_27__unique_ptr_deleter_sfinaeIS5_EEXT_EE20__good_rval_ref_typeE, symObjAddr: 0xB530, symBinAddr: 0x10000F880, symSize: 0x50 }
  - { offsetInCU: 0x17546, offset: 0x17546, size: 0x8, addend: 0x0, symName: __ZNSt3__117__compressed_pairIPiNS_22__allocator_destructorINS_9allocatorIiEEEEEC1B7v160006IRS1_S5_EEOT_OT0_, symObjAddr: 0xB580, symBinAddr: 0x10000F8D0, symSize: 0x30 }
  - { offsetInCU: 0x1759E, offset: 0x1759E, size: 0x8, addend: 0x0, symName: __ZNSt3__117__compressed_pairIPiNS_22__allocator_destructorINS_9allocatorIiEEEEEC2B7v160006IRS1_S5_EEOT_OT0_, symObjAddr: 0xB5B0, symBinAddr: 0x10000F900, symSize: 0x40 }
  - { offsetInCU: 0x175F6, offset: 0x175F6, size: 0x8, addend: 0x0, symName: __ZNSt3__122__compressed_pair_elemIPiLi0ELb0EEC2B7v160006IRS1_vEEOT_, symObjAddr: 0xB5F0, symBinAddr: 0x10000F940, symSize: 0x20 }
  - { offsetInCU: 0x17638, offset: 0x17638, size: 0x8, addend: 0x0, symName: __ZNSt3__122__compressed_pair_elemINS_22__allocator_destructorINS_9allocatorIiEEEELi1ELb0EEC2B7v160006IS4_vEEOT_, symObjAddr: 0xB610, symBinAddr: 0x10000F960, symSize: 0x30 }
  - { offsetInCU: 0x1767A, offset: 0x1767A, size: 0x8, addend: 0x0, symName: __ZNKSt3__117__compressed_pairIPiNS_22__allocator_destructorINS_9allocatorIiEEEEE5firstB7v160006Ev, symObjAddr: 0xB640, symBinAddr: 0x10000F990, symSize: 0x20 }
  - { offsetInCU: 0x176A0, offset: 0x176A0, size: 0x8, addend: 0x0, symName: __ZNKSt3__122__compressed_pair_elemIPiLi0ELb0EE5__getB7v160006Ev, symObjAddr: 0xB660, symBinAddr: 0x10000F9B0, symSize: 0x10 }
  - { offsetInCU: 0x176C6, offset: 0x176C6, size: 0x8, addend: 0x0, symName: __ZNSt3__117__compressed_pairIPiNS_22__allocator_destructorINS_9allocatorIiEEEEE5firstB7v160006Ev, symObjAddr: 0xB670, symBinAddr: 0x10000F9C0, symSize: 0x20 }
  - { offsetInCU: 0x176EC, offset: 0x176EC, size: 0x8, addend: 0x0, symName: __ZNSt3__122__compressed_pair_elemIPiLi0ELb0EE5__getB7v160006Ev, symObjAddr: 0xB690, symBinAddr: 0x10000F9E0, symSize: 0x10 }
  - { offsetInCU: 0x17712, offset: 0x17712, size: 0x8, addend: 0x0, symName: __ZNSt3__110unique_ptrIPiNS_22__allocator_destructorINS_9allocatorIiEEEEED2B7v160006Ev, symObjAddr: 0xB6A0, symBinAddr: 0x10000F9F0, symSize: 0x20 }
  - { offsetInCU: 0x1773C, offset: 0x1773C, size: 0x8, addend: 0x0, symName: __ZNSt3__110unique_ptrIPiNS_22__allocator_destructorINS_9allocatorIiEEEEE5resetB7v160006ES1_, symObjAddr: 0xB6C0, symBinAddr: 0x10000FA10, symSize: 0x70 }
  - { offsetInCU: 0x17780, offset: 0x17780, size: 0x8, addend: 0x0, symName: __ZNSt3__117__compressed_pairIPiNS_22__allocator_destructorINS_9allocatorIiEEEEE6secondB7v160006Ev, symObjAddr: 0xB730, symBinAddr: 0x10000FA80, symSize: 0x20 }
  - { offsetInCU: 0x177A6, offset: 0x177A6, size: 0x8, addend: 0x0, symName: __ZNSt3__122__allocator_destructorINS_9allocatorIiEEEclB7v160006EPi, symObjAddr: 0xB750, symBinAddr: 0x10000FAA0, symSize: 0x30 }
  - { offsetInCU: 0x177DA, offset: 0x177DA, size: 0x8, addend: 0x0, symName: __ZNSt3__122__compressed_pair_elemINS_22__allocator_destructorINS_9allocatorIiEEEELi1ELb0EE5__getB7v160006Ev, symObjAddr: 0xB780, symBinAddr: 0x10000FAD0, symSize: 0x10 }
  - { offsetInCU: 0x17800, offset: 0x17800, size: 0x8, addend: 0x0, symName: __ZNSt3__16vectorI11InstructionNS_9allocatorIS1_EEE19__copy_assign_allocB7v160006ERKS4_, symObjAddr: 0xB790, symBinAddr: 0x10000FAE0, symSize: 0x30 }
  - { offsetInCU: 0x17835, offset: 0x17835, size: 0x8, addend: 0x0, symName: __ZNSt3__16vectorI11InstructionNS_9allocatorIS1_EEE6assignIPS1_Li0EEEvT_S7_, symObjAddr: 0xB7C0, symBinAddr: 0x10000FB10, symSize: 0x160 }
  - { offsetInCU: 0x178D4, offset: 0x178D4, size: 0x8, addend: 0x0, symName: __ZNSt3__16vectorI11InstructionNS_9allocatorIS1_EEE19__copy_assign_allocB7v160006ERKS4_NS_17integral_constantIbLb0EEE, symObjAddr: 0xB920, symBinAddr: 0x10000FC70, symSize: 0x10 }
  - { offsetInCU: 0x17912, offset: 0x17912, size: 0x8, addend: 0x0, symName: __ZNSt3__16vectorI11InstructionNS_9allocatorIS1_EEE17__destruct_at_endB7v160006EPS1_, symObjAddr: 0xB9F0, symBinAddr: 0x10000FD40, symSize: 0x80 }
  - { offsetInCU: 0x17956, offset: 0x17956, size: 0x8, addend: 0x0, symName: __ZNSt3__16vectorI11InstructionNS_9allocatorIS1_EEE13__vdeallocateEv, symObjAddr: 0xBA70, symBinAddr: 0x10000FDC0, symSize: 0x80 }
  - { offsetInCU: 0x1797E, offset: 0x1797E, size: 0x8, addend: 0x0, symName: __ZNKSt3__16vectorI11InstructionNS_9allocatorIS1_EEE11__recommendB7v160006Em, symObjAddr: 0xBAF0, symBinAddr: 0x10000FE40, symSize: 0xA0 }
  - { offsetInCU: 0x179EC, offset: 0x179EC, size: 0x8, addend: 0x0, symName: __ZNKSt3__111__copy_loopINS_17_ClassicAlgPolicyEEclB7v160006IP11InstructionS5_S5_EENS_4pairIT_T1_EES7_T0_S8_, symObjAddr: 0xBE50, symBinAddr: 0x1000101A0, symSize: 0x80 }
  - { offsetInCU: 0x17A57, offset: 0x17A57, size: 0x8, addend: 0x0, symName: __ZNSt3__118__unwrap_iter_implIP11InstructionLb1EE8__unwrapB7v160006ES2_, symObjAddr: 0xBFA0, symBinAddr: 0x1000102F0, symSize: 0x20 }
  - { offsetInCU: 0x17A7A, offset: 0x17A7A, size: 0x8, addend: 0x0, symName: __ZNSt3__14pairIP11InstructionS2_EC1B7v160006ERKS2_S5_, symObjAddr: 0xBFC0, symBinAddr: 0x100010310, symSize: 0x30 }
  - { offsetInCU: 0x17AC0, offset: 0x17AC0, size: 0x8, addend: 0x0, symName: __ZNSt3__14pairIP11InstructionS2_EC2B7v160006ERKS2_S5_, symObjAddr: 0xBFF0, symBinAddr: 0x100010340, symSize: 0x30 }
  - { offsetInCU: 0x17B06, offset: 0x17B06, size: 0x8, addend: 0x0, symName: __ZNSt3__118__unwrap_iter_implIP11InstructionLb1EE8__rewrapB7v160006ES2_S2_, symObjAddr: 0xC020, symBinAddr: 0x100010370, symSize: 0x50 }
  - { offsetInCU: 0x17B37, offset: 0x17B37, size: 0x8, addend: 0x0, symName: __ZNSt3__16vectorI11InstructionNS_9allocatorIS1_EEE27__invalidate_iterators_pastB7v160006EPS1_, symObjAddr: 0xC070, symBinAddr: 0x1000103C0, symSize: 0x10 }
  - { offsetInCU: 0x17B6E, offset: 0x17B6E, size: 0x8, addend: 0x0, symName: __ZNKSt3__16vectorI11InstructionNS_9allocatorIS1_EEE17__annotate_shrinkB7v160006Em, symObjAddr: 0xC080, symBinAddr: 0x1000103D0, symSize: 0xA0 }
  - { offsetInCU: 0x17BA3, offset: 0x17BA3, size: 0x8, addend: 0x0, symName: __ZNSt3__112basic_stringIcNS_11char_traitsIcEENS_9allocatorIcEEEC2B7v160006Ev, symObjAddr: 0xC120, symBinAddr: 0x100010470, symSize: 0x40 }
  - { offsetInCU: 0x17BCD, offset: 0x17BCD, size: 0x8, addend: 0x0, symName: __ZNSt3__112basic_stringIcNS_11char_traitsIcEENS_9allocatorIcEEE14__default_initB7v160006Ev, symObjAddr: 0xC160, symBinAddr: 0x1000104B0, symSize: 0xC0 }
  - { offsetInCU: 0x17C1F, offset: 0x17C1F, size: 0x8, addend: 0x0, symName: __ZNSt3__117__compressed_pairINS_12basic_stringIcNS_11char_traitsIcEENS_9allocatorIcEEE5__repES5_E5firstB7v160006Ev, symObjAddr: 0xC220, symBinAddr: 0x100010570, symSize: 0x20 }
  - { offsetInCU: 0x17C45, offset: 0x17C45, size: 0x8, addend: 0x0, symName: __ZNSt3__112basic_stringIcNS_11char_traitsIcEENS_9allocatorIcEEE11__recommendB7v160006Em, symObjAddr: 0xC240, symBinAddr: 0x100010590, symSize: 0x90 }
  - { offsetInCU: 0x17C78, offset: 0x17C78, size: 0x8, addend: 0x0, symName: __ZNSt3__116allocator_traitsINS_9allocatorIcEEE8allocateB7v160006ERS2_m, symObjAddr: 0xC2D0, symBinAddr: 0x100010620, symSize: 0x30 }
  - { offsetInCU: 0x17CAB, offset: 0x17CAB, size: 0x8, addend: 0x0, symName: __ZNSt3__112basic_stringIcNS_11char_traitsIcEENS_9allocatorIcEEE7__allocB7v160006Ev, symObjAddr: 0xC300, symBinAddr: 0x100010650, symSize: 0x20 }
  - { offsetInCU: 0x17CD1, offset: 0x17CD1, size: 0x8, addend: 0x0, symName: __ZNSt3__112basic_stringIcNS_11char_traitsIcEENS_9allocatorIcEEE16__begin_lifetimeB7v160006EPcm, symObjAddr: 0xC320, symBinAddr: 0x100010670, symSize: 0x10 }
  - { offsetInCU: 0x17D04, offset: 0x17D04, size: 0x8, addend: 0x0, symName: __ZNSt3__112basic_stringIcNS_11char_traitsIcEENS_9allocatorIcEEE18__set_long_pointerB7v160006EPc, symObjAddr: 0xC330, symBinAddr: 0x100010680, symSize: 0x30 }
  - { offsetInCU: 0x17D39, offset: 0x17D39, size: 0x8, addend: 0x0, symName: __ZNSt3__112basic_stringIcNS_11char_traitsIcEENS_9allocatorIcEEE14__set_long_capB7v160006Em, symObjAddr: 0xC360, symBinAddr: 0x1000106B0, symSize: 0x70 }
  - { offsetInCU: 0x17D6E, offset: 0x17D6E, size: 0x8, addend: 0x0, symName: __ZNSt3__112basic_stringIcNS_11char_traitsIcEENS_9allocatorIcEEE15__set_long_sizeB7v160006Em, symObjAddr: 0xC3D0, symBinAddr: 0x100010720, symSize: 0x30 }
  - { offsetInCU: 0x17DA3, offset: 0x17DA3, size: 0x8, addend: 0x0, symName: __ZNSt3__122__compressed_pair_elemINS_12basic_stringIcNS_11char_traitsIcEENS_9allocatorIcEEE5__repELi0ELb0EE5__getB7v160006Ev, symObjAddr: 0xC400, symBinAddr: 0x100010750, symSize: 0x10 }
  - { offsetInCU: 0x17DC9, offset: 0x17DC9, size: 0x8, addend: 0x0, symName: __ZNSt3__112basic_stringIcNS_11char_traitsIcEENS_9allocatorIcEEE10__align_itB7v160006ILm16EEEmm, symObjAddr: 0xC410, symBinAddr: 0x100010760, symSize: 0x20 }
  - { offsetInCU: 0x17DF7, offset: 0x17DF7, size: 0x8, addend: 0x0, symName: __ZNSt3__19allocatorIcE8allocateB7v160006Em, symObjAddr: 0xC430, symBinAddr: 0x100010780, symSize: 0x80 }
  - { offsetInCU: 0x17E35, offset: 0x17E35, size: 0x8, addend: 0x0, symName: __ZNSt3__116allocator_traitsINS_9allocatorIcEEE8max_sizeB7v160006IS2_vEEmRKS2_, symObjAddr: 0xC4B0, symBinAddr: 0x100010800, symSize: 0x20 }
  - { offsetInCU: 0x17E63, offset: 0x17E63, size: 0x8, addend: 0x0, symName: __ZNKSt3__19allocatorIcE8max_sizeB7v160006Ev, symObjAddr: 0xC4D0, symBinAddr: 0x100010820, symSize: 0x20 }
  - { offsetInCU: 0x17E89, offset: 0x17E89, size: 0x8, addend: 0x0, symName: __ZNSt3__117__compressed_pairINS_12basic_stringIcNS_11char_traitsIcEENS_9allocatorIcEEE5__repES5_E6secondB7v160006Ev, symObjAddr: 0xC4F0, symBinAddr: 0x100010840, symSize: 0x20 }
  - { offsetInCU: 0x17EAF, offset: 0x17EAF, size: 0x8, addend: 0x0, symName: __ZNSt3__122__compressed_pair_elemINS_9allocatorIcEELi1ELb1EE5__getB7v160006Ev, symObjAddr: 0xC510, symBinAddr: 0x100010860, symSize: 0x10 }
  - { offsetInCU: 0x17ED5, offset: 0x17ED5, size: 0x8, addend: 0x0, symName: __ZNSt3__15dequeIiNS_9allocatorIiEEE26__maybe_remove_front_spareB7v160006Eb, symObjAddr: 0xC520, symBinAddr: 0x100010870, symSize: 0xB0 }
  - { offsetInCU: 0x17F0A, offset: 0x17F0A, size: 0x8, addend: 0x0, symName: __ZNKSt3__15dequeIiNS_9allocatorIiEEE20__front_spare_blocksB7v160006Ev, symObjAddr: 0xC5D0, symBinAddr: 0x100010920, symSize: 0x20 }
  - { offsetInCU: 0x17F30, offset: 0x17F30, size: 0x8, addend: 0x0, symName: __ZNSt3__112basic_stringIcNS_11char_traitsIcEENS_9allocatorIcEEEC2B7v160006IDnEEPKc, symObjAddr: 0xC5F0, symBinAddr: 0x100010940, symSize: 0x60 }
  - { offsetInCU: 0x17F6E, offset: 0x17F6E, size: 0x8, addend: 0x0, symName: __ZNSt3__111char_traitsIcE4findEPKcmRS2_, symObjAddr: 0xC700, symBinAddr: 0x100010A50, symSize: 0x80 }
  - { offsetInCU: 0x17FAD, offset: 0x17FAD, size: 0x8, addend: 0x0, symName: __ZNSt3__19allocatorIcEC1B7v160006Ev, symObjAddr: 0xC860, symBinAddr: 0x100010BB0, symSize: 0x20 }
  - { offsetInCU: 0x17FD7, offset: 0x17FD7, size: 0x8, addend: 0x0, symName: __ZNSt3__19basic_iosIcNS_11char_traitsIcEEEC2B7v160006Ev, symObjAddr: 0xC880, symBinAddr: 0x100010BD0, symSize: 0x40 }
  - { offsetInCU: 0x18001, offset: 0x18001, size: 0x8, addend: 0x0, symName: __ZNSt3__113basic_istreamIcNS_11char_traitsIcEEEC2B7v160006EPNS_15basic_streambufIcS2_EE, symObjAddr: 0xC8C0, symBinAddr: 0x100010C10, symSize: 0x50 }
  - { offsetInCU: 0x18046, offset: 0x18046, size: 0x8, addend: 0x0, symName: __ZNSt3__18ios_baseC2B7v160006Ev, symObjAddr: 0xC910, symBinAddr: 0x100010C60, symSize: 0x20 }
  - { offsetInCU: 0x18070, offset: 0x18070, size: 0x8, addend: 0x0, symName: __ZNSt3__19basic_iosIcNS_11char_traitsIcEEE4initB7v160006EPNS_15basic_streambufIcS2_EE, symObjAddr: 0xC930, symBinAddr: 0x100010C80, symSize: 0x50 }
  - { offsetInCU: 0x180A7, offset: 0x180A7, size: 0x8, addend: 0x0, symName: __ZNKSt3__113basic_filebufIcNS_11char_traitsIcEEE7is_openEv, symObjAddr: 0xC980, symBinAddr: 0x100010CD0, symSize: 0x20 }
  - { offsetInCU: 0x180CF, offset: 0x180CF, size: 0x8, addend: 0x0, symName: __ZNKSt3__18ios_base4goodB7v160006Ev, symObjAddr: 0xC9A0, symBinAddr: 0x100010CF0, symSize: 0x20 }
  - { offsetInCU: 0x18115, offset: 0x18115, size: 0x8, addend: 0x0, symName: __ZNKSt3__113basic_istreamIcNS_11char_traitsIcEEE6sentrycvbB7v160006Ev, symObjAddr: 0xCBE0, symBinAddr: 0x100010F30, symSize: 0x20 }
  - { offsetInCU: 0x1813B, offset: 0x1813B, size: 0x8, addend: 0x0, symName: __ZNSt3__112basic_stringIcNS_11char_traitsIcEENS_9allocatorIcEEE5clearB7v160006Ev, symObjAddr: 0xCC00, symBinAddr: 0x100010F50, symSize: 0xA0 }
  - { offsetInCU: 0x18163, offset: 0x18163, size: 0x8, addend: 0x0, symName: __ZNSt3__115basic_streambufIcNS_11char_traitsIcEEE6sbumpcB7v160006Ev, symObjAddr: 0xCCA0, symBinAddr: 0x100010FF0, symSize: 0x60 }
  - { offsetInCU: 0x18189, offset: 0x18189, size: 0x8, addend: 0x0, symName: __ZNSt3__111char_traitsIcE12to_char_typeEi, symObjAddr: 0xCD00, symBinAddr: 0x100011050, symSize: 0x10 }
  - { offsetInCU: 0x181AC, offset: 0x181AC, size: 0x8, addend: 0x0, symName: __ZNSt3__111char_traitsIcE2eqEcc, symObjAddr: 0xCD10, symBinAddr: 0x100011060, symSize: 0x30 }
  - { offsetInCU: 0x181DD, offset: 0x181DD, size: 0x8, addend: 0x0, symName: __ZNKSt3__112basic_stringIcNS_11char_traitsIcEENS_9allocatorIcEEE8max_sizeB7v160006Ev, symObjAddr: 0xCD40, symBinAddr: 0x100011090, symSize: 0xA0 }
  - { offsetInCU: 0x1822F, offset: 0x1822F, size: 0x8, addend: 0x0, symName: __ZNSt3__18ios_base18__setstate_nothrowB7v160006Ej, symObjAddr: 0xCDE0, symBinAddr: 0x100011130, symSize: 0x50 }
  - { offsetInCU: 0x18264, offset: 0x18264, size: 0x8, addend: 0x0, symName: __ZNKSt3__19basic_iosIcNS_11char_traitsIcEEE10exceptionsB7v160006Ev, symObjAddr: 0xCE30, symBinAddr: 0x100011180, symSize: 0x20 }
  - { offsetInCU: 0x1828A, offset: 0x1828A, size: 0x8, addend: 0x0, symName: __ZNSt3__111char_traitsIcE6assignERcRKc, symObjAddr: 0xCE60, symBinAddr: 0x1000111B0, symSize: 0x20 }
  - { offsetInCU: 0x182BB, offset: 0x182BB, size: 0x8, addend: 0x0, symName: __ZNSt3__112basic_stringIcNS_11char_traitsIcEENS_9allocatorIcEEE18__get_long_pointerB7v160006Ev, symObjAddr: 0xCE80, symBinAddr: 0x1000111D0, symSize: 0x20 }
  - { offsetInCU: 0x182E1, offset: 0x182E1, size: 0x8, addend: 0x0, symName: __ZNSt3__112basic_stringIcNS_11char_traitsIcEENS_9allocatorIcEEE19__get_short_pointerB7v160006Ev, symObjAddr: 0xCEA0, symBinAddr: 0x1000111F0, symSize: 0x30 }
  - { offsetInCU: 0x18307, offset: 0x18307, size: 0x8, addend: 0x0, symName: __ZNSt3__112basic_stringIcNS_11char_traitsIcEENS_9allocatorIcEEE16__set_short_sizeB7v160006Em, symObjAddr: 0xCED0, symBinAddr: 0x100011220, symSize: 0x50 }
  - { offsetInCU: 0x1833C, offset: 0x1833C, size: 0x8, addend: 0x0, symName: __ZNSt3__114pointer_traitsIPcE10pointer_toB7v160006ERc, symObjAddr: 0xCF20, symBinAddr: 0x100011270, symSize: 0x10 }
  - { offsetInCU: 0x1835F, offset: 0x1835F, size: 0x8, addend: 0x0, symName: __ZNSt3__111char_traitsIcE11to_int_typeEc, symObjAddr: 0xCF30, symBinAddr: 0x100011280, symSize: 0x10 }
  - { offsetInCU: 0x18382, offset: 0x18382, size: 0x8, addend: 0x0, symName: __ZNKSt3__112basic_stringIcNS_11char_traitsIcEENS_9allocatorIcEEE7__allocB7v160006Ev, symObjAddr: 0xCF40, symBinAddr: 0x100011290, symSize: 0x20 }
  - { offsetInCU: 0x183A8, offset: 0x183A8, size: 0x8, addend: 0x0, symName: __ZNSt3__114numeric_limitsImE3maxB7v160006Ev, symObjAddr: 0xCF60, symBinAddr: 0x1000112B0, symSize: 0x10 }
  - { offsetInCU: 0x183BC, offset: 0x183BC, size: 0x8, addend: 0x0, symName: __ZNKSt3__117__compressed_pairINS_12basic_stringIcNS_11char_traitsIcEENS_9allocatorIcEEE5__repES5_E6secondB7v160006Ev, symObjAddr: 0xCF70, symBinAddr: 0x1000112C0, symSize: 0x20 }
  - { offsetInCU: 0x183E2, offset: 0x183E2, size: 0x8, addend: 0x0, symName: __ZNKSt3__122__compressed_pair_elemINS_9allocatorIcEELi1ELb1EE5__getB7v160006Ev, symObjAddr: 0xCF90, symBinAddr: 0x1000112E0, symSize: 0x10 }
  - { offsetInCU: 0x18408, offset: 0x18408, size: 0x8, addend: 0x0, symName: __ZNSt3__123__libcpp_numeric_limitsImLb1EE3maxB7v160006Ev, symObjAddr: 0xCFA0, symBinAddr: 0x1000112F0, symSize: 0x10 }
  - { offsetInCU: 0x1841C, offset: 0x1841C, size: 0x8, addend: 0x0, symName: __ZNKSt3__18ios_base10exceptionsB7v160006Ev, symObjAddr: 0xCFB0, symBinAddr: 0x100011300, symSize: 0x20 }
  - { offsetInCU: 0x18444, offset: 0x18444, size: 0x8, addend: 0x0, symName: __ZNKSt3__112basic_stringIcNS_11char_traitsIcEENS_9allocatorIcEEE15__get_long_sizeB7v160006Ev, symObjAddr: 0xCFD0, symBinAddr: 0x100011320, symSize: 0x20 }
  - { offsetInCU: 0x1846A, offset: 0x1846A, size: 0x8, addend: 0x0, symName: __ZNKSt3__112basic_stringIcNS_11char_traitsIcEENS_9allocatorIcEEE16__get_short_sizeB7v160006Ev, symObjAddr: 0xCFF0, symBinAddr: 0x100011340, symSize: 0x30 }
  - { offsetInCU: 0x18490, offset: 0x18490, size: 0x8, addend: 0x0, symName: __ZNSt3__112basic_stringIcNS_11char_traitsIcEENS_9allocatorIcEEE13__get_pointerB7v160006Ev, symObjAddr: 0xD020, symBinAddr: 0x100011370, symSize: 0x50 }
  - { offsetInCU: 0x184B6, offset: 0x184B6, size: 0x8, addend: 0x0, symName: __ZNSt3__114basic_iostreamIcNS_11char_traitsIcEEEC2B7v160006EPNS_15basic_streambufIcS2_EE, symObjAddr: 0xD070, symBinAddr: 0x1000113C0, symSize: 0xB0 }
  - { offsetInCU: 0x184FC, offset: 0x184FC, size: 0x8, addend: 0x0, symName: __ZNSt3__115basic_stringbufIcNS_11char_traitsIcEENS_9allocatorIcEEEC1B7v160006ERKNS_12basic_stringIcS2_S4_EEj, symObjAddr: 0xD120, symBinAddr: 0x100011470, symSize: 0x30 }
  - { offsetInCU: 0x18542, offset: 0x18542, size: 0x8, addend: 0x0, symName: __ZNSt3__113basic_ostreamIcNS_11char_traitsIcEEEC2B7v160006Ev, symObjAddr: 0xD150, symBinAddr: 0x1000114A0, symSize: 0x30 }
  - { offsetInCU: 0x18579, offset: 0x18579, size: 0x8, addend: 0x0, symName: __ZNSt3__115basic_stringbufIcNS_11char_traitsIcEENS_9allocatorIcEEEC2B7v160006ERKNS_12basic_stringIcS2_S4_EEj, symObjAddr: 0xD180, symBinAddr: 0x1000114D0, symSize: 0xD0 }
  - { offsetInCU: 0x185BF, offset: 0x185BF, size: 0x8, addend: 0x0, symName: __ZNKSt3__112basic_stringIcNS_11char_traitsIcEENS_9allocatorIcEEE13get_allocatorB7v160006Ev, symObjAddr: 0xD250, symBinAddr: 0x1000115A0, symSize: 0x20 }
  - { offsetInCU: 0x185E5, offset: 0x185E5, size: 0x8, addend: 0x0, symName: __ZNSt3__112basic_stringIcNS_11char_traitsIcEENS_9allocatorIcEEEC1B7v160006ERKS4_, symObjAddr: 0xD270, symBinAddr: 0x1000115C0, symSize: 0x30 }
  - { offsetInCU: 0x1861E, offset: 0x1861E, size: 0x8, addend: 0x0, symName: __ZNSt3__112basic_stringIcNS_11char_traitsIcEENS_9allocatorIcEEEC2B7v160006ERKS4_, symObjAddr: 0xD2A0, symBinAddr: 0x1000115F0, symSize: 0x40 }
  - { offsetInCU: 0x18657, offset: 0x18657, size: 0x8, addend: 0x0, symName: __ZNSt3__117__compressed_pairINS_12basic_stringIcNS_11char_traitsIcEENS_9allocatorIcEEE5__repES5_EC1B7v160006INS_18__default_init_tagERKS5_EEOT_OT0_, symObjAddr: 0xD2E0, symBinAddr: 0x100011630, symSize: 0x30 }
  - { offsetInCU: 0x186AF, offset: 0x186AF, size: 0x8, addend: 0x0, symName: __ZNSt3__117__compressed_pairINS_12basic_stringIcNS_11char_traitsIcEENS_9allocatorIcEEE5__repES5_EC2B7v160006INS_18__default_init_tagERKS5_EEOT_OT0_, symObjAddr: 0xD310, symBinAddr: 0x100011660, symSize: 0x40 }
  - { offsetInCU: 0x18707, offset: 0x18707, size: 0x8, addend: 0x0, symName: __ZNSt3__122__compressed_pair_elemINS_9allocatorIcEELi1ELb1EEC2B7v160006IRKS2_vEEOT_, symObjAddr: 0xD350, symBinAddr: 0x1000116A0, symSize: 0x10 }
  - { offsetInCU: 0x18749, offset: 0x18749, size: 0x8, addend: 0x0, symName: __ZNKSt3__19basic_iosIcNS_11char_traitsIcEEE4failB7v160006Ev, symObjAddr: 0xD360, symBinAddr: 0x1000116B0, symSize: 0x20 }
  - { offsetInCU: 0x1876F, offset: 0x1876F, size: 0x8, addend: 0x0, symName: __ZNKSt3__18ios_base4failB7v160006Ev, symObjAddr: 0xD380, symBinAddr: 0x1000116D0, symSize: 0x20 }
  - { offsetInCU: 0x18797, offset: 0x18797, size: 0x8, addend: 0x0, symName: __ZNSt3__16vectorI11InstructionNS_9allocatorIS1_EEE22__construct_one_at_endB7v160006IJRKS1_EEEvDpOT_, symObjAddr: 0xD3A0, symBinAddr: 0x1000116F0, symSize: 0xA0 }
  - { offsetInCU: 0x187E6, offset: 0x187E6, size: 0x8, addend: 0x0, symName: __ZNSt3__16vectorI11InstructionNS_9allocatorIS1_EEE21__push_back_slow_pathIRKS1_EEvOT_, symObjAddr: 0xD440, symBinAddr: 0x100011790, symSize: 0xE0 }
  - { offsetInCU: 0x18844, offset: 0x18844, size: 0x8, addend: 0x0, symName: __ZNSt3__116allocator_traitsINS_9allocatorI11InstructionEEE9constructB7v160006IS2_JRKS2_EvEEvRS3_PT_DpOT0_, symObjAddr: 0xD520, symBinAddr: 0x100011870, symSize: 0x30 }
  - { offsetInCU: 0x1889B, offset: 0x1889B, size: 0x8, addend: 0x0, symName: __ZNSt3__19allocatorI11InstructionE9constructB7v160006IS1_JRKS1_EEEvPT_DpOT0_, symObjAddr: 0xD550, symBinAddr: 0x1000118A0, symSize: 0x30 }
  - { offsetInCU: 0x188F1, offset: 0x188F1, size: 0x8, addend: 0x0, symName: __ZNSt3__114__split_bufferI11InstructionRNS_9allocatorIS1_EEEC1EmmS4_, symObjAddr: 0xD580, symBinAddr: 0x1000118D0, symSize: 0x40 }
  - { offsetInCU: 0x18947, offset: 0x18947, size: 0x8, addend: 0x0, symName: __ZNSt3__114__split_bufferI11InstructionRNS_9allocatorIS1_EEED1Ev, symObjAddr: 0xD6F0, symBinAddr: 0x100011A40, symSize: 0x20 }
  - { offsetInCU: 0x18973, offset: 0x18973, size: 0x8, addend: 0x0, symName: __ZNSt3__114__split_bufferI11InstructionRNS_9allocatorIS1_EEEC2EmmS4_, symObjAddr: 0xD710, symBinAddr: 0x100011A60, symSize: 0xD0 }
  - { offsetInCU: 0x189E6, offset: 0x189E6, size: 0x8, addend: 0x0, symName: __ZNSt3__117__compressed_pairIP11InstructionRNS_9allocatorIS1_EEEC1B7v160006IDnS5_EEOT_OT0_, symObjAddr: 0xD7E0, symBinAddr: 0x100011B30, symSize: 0x30 }
  - { offsetInCU: 0x18A3E, offset: 0x18A3E, size: 0x8, addend: 0x0, symName: __ZNSt3__114__split_bufferI11InstructionRNS_9allocatorIS1_EEE7__allocB7v160006Ev, symObjAddr: 0xD810, symBinAddr: 0x100011B60, symSize: 0x20 }
  - { offsetInCU: 0x18A64, offset: 0x18A64, size: 0x8, addend: 0x0, symName: __ZNSt3__114__split_bufferI11InstructionRNS_9allocatorIS1_EEE9__end_capB7v160006Ev, symObjAddr: 0xD830, symBinAddr: 0x100011B80, symSize: 0x20 }
  - { offsetInCU: 0x18A8A, offset: 0x18A8A, size: 0x8, addend: 0x0, symName: __ZNSt3__117__compressed_pairIP11InstructionRNS_9allocatorIS1_EEEC2B7v160006IDnS5_EEOT_OT0_, symObjAddr: 0xD850, symBinAddr: 0x100011BA0, symSize: 0x40 }
  - { offsetInCU: 0x18AE2, offset: 0x18AE2, size: 0x8, addend: 0x0, symName: __ZNSt3__122__compressed_pair_elemIRNS_9allocatorI11InstructionEELi1ELb0EEC2B7v160006IS4_vEEOT_, symObjAddr: 0xD890, symBinAddr: 0x100011BE0, symSize: 0x20 }
  - { offsetInCU: 0x18B24, offset: 0x18B24, size: 0x8, addend: 0x0, symName: __ZNSt3__117__compressed_pairIP11InstructionRNS_9allocatorIS1_EEE6secondB7v160006Ev, symObjAddr: 0xD8B0, symBinAddr: 0x100011C00, symSize: 0x20 }
  - { offsetInCU: 0x18B4A, offset: 0x18B4A, size: 0x8, addend: 0x0, symName: __ZNSt3__122__compressed_pair_elemIRNS_9allocatorI11InstructionEELi1ELb0EE5__getB7v160006Ev, symObjAddr: 0xD8D0, symBinAddr: 0x100011C20, symSize: 0x20 }
  - { offsetInCU: 0x18B70, offset: 0x18B70, size: 0x8, addend: 0x0, symName: __ZNSt3__117__compressed_pairIP11InstructionRNS_9allocatorIS1_EEE5firstB7v160006Ev, symObjAddr: 0xD8F0, symBinAddr: 0x100011C40, symSize: 0x20 }
  - { offsetInCU: 0x18B96, offset: 0x18B96, size: 0x8, addend: 0x0, symName: __ZNSt3__129_AllocatorDestroyRangeReverseINS_9allocatorI11InstructionEENS_16reverse_iteratorIPS2_EEEC1B7v160006ERS3_RS6_S9_, symObjAddr: 0xDB20, symBinAddr: 0x100011E70, symSize: 0x40 }
  - { offsetInCU: 0x18BED, offset: 0x18BED, size: 0x8, addend: 0x0, symName: __ZNSt3__128__exception_guard_exceptionsINS_29_AllocatorDestroyRangeReverseINS_9allocatorI11InstructionEENS_16reverse_iteratorIPS3_EEEEE10__completeB7v160006Ev, symObjAddr: 0xDB60, symBinAddr: 0x100011EB0, symSize: 0x20 }
  - { offsetInCU: 0x18C13, offset: 0x18C13, size: 0x8, addend: 0x0, symName: __ZNSt3__128__exception_guard_exceptionsINS_29_AllocatorDestroyRangeReverseINS_9allocatorI11InstructionEENS_16reverse_iteratorIPS3_EEEEED1B7v160006Ev, symObjAddr: 0xDB80, symBinAddr: 0x100011ED0, symSize: 0x20 }
  - { offsetInCU: 0x18C3D, offset: 0x18C3D, size: 0x8, addend: 0x0, symName: __ZNSt3__128__exception_guard_exceptionsINS_29_AllocatorDestroyRangeReverseINS_9allocatorI11InstructionEENS_16reverse_iteratorIPS3_EEEEEC1B7v160006ES8_, symObjAddr: 0xDBA0, symBinAddr: 0x100011EF0, symSize: 0x40 }
  - { offsetInCU: 0x18C75, offset: 0x18C75, size: 0x8, addend: 0x0, symName: __ZNSt3__128__exception_guard_exceptionsINS_29_AllocatorDestroyRangeReverseINS_9allocatorI11InstructionEENS_16reverse_iteratorIPS3_EEEEEC2B7v160006ES8_, symObjAddr: 0xDBE0, symBinAddr: 0x100011F30, symSize: 0x30 }
  - { offsetInCU: 0x18CAD, offset: 0x18CAD, size: 0x8, addend: 0x0, symName: __ZNSt3__129_AllocatorDestroyRangeReverseINS_9allocatorI11InstructionEENS_16reverse_iteratorIPS2_EEEC2B7v160006ERS3_RS6_S9_, symObjAddr: 0xDC10, symBinAddr: 0x100011F60, symSize: 0x40 }
  - { offsetInCU: 0x18D04, offset: 0x18D04, size: 0x8, addend: 0x0, symName: __ZNSt3__128__exception_guard_exceptionsINS_29_AllocatorDestroyRangeReverseINS_9allocatorI11InstructionEENS_16reverse_iteratorIPS3_EEEEED2B7v160006Ev, symObjAddr: 0xDC50, symBinAddr: 0x100011FA0, symSize: 0x30 }
  - { offsetInCU: 0x18D2E, offset: 0x18D2E, size: 0x8, addend: 0x0, symName: __ZNKSt3__129_AllocatorDestroyRangeReverseINS_9allocatorI11InstructionEENS_16reverse_iteratorIPS2_EEEclB7v160006Ev, symObjAddr: 0xDC80, symBinAddr: 0x100011FD0, symSize: 0xF0 }
  - { offsetInCU: 0x18D55, offset: 0x18D55, size: 0x8, addend: 0x0, symName: __ZNSt3__116reverse_iteratorINS0_IP11InstructionEEEC1B7v160006ES3_, symObjAddr: 0xDDE0, symBinAddr: 0x100012130, symSize: 0x30 }
  - { offsetInCU: 0x18D8D, offset: 0x18D8D, size: 0x8, addend: 0x0, symName: __ZNSt3__116reverse_iteratorINS0_IP11InstructionEEEppB7v160006Ev, symObjAddr: 0xDE80, symBinAddr: 0x1000121D0, symSize: 0x30 }
  - { offsetInCU: 0x18DB3, offset: 0x18DB3, size: 0x8, addend: 0x0, symName: __ZNKSt3__116reverse_iteratorINS0_IP11InstructionEEE4baseB7v160006Ev, symObjAddr: 0xDEB0, symBinAddr: 0x100012200, symSize: 0x20 }
  - { offsetInCU: 0x18DDE, offset: 0x18DDE, size: 0x8, addend: 0x0, symName: __ZNSt3__119__to_address_helperINS_16reverse_iteratorINS1_IP11InstructionEEEEvE6__callB7v160006ERKS5_, symObjAddr: 0xDED0, symBinAddr: 0x100012220, symSize: 0x50 }
  - { offsetInCU: 0x18E01, offset: 0x18E01, size: 0x8, addend: 0x0, symName: __ZNKSt3__116reverse_iteratorINS0_IP11InstructionEEEptB7v160006Ev, symObjAddr: 0xDF20, symBinAddr: 0x100012270, symSize: 0x20 }
  - { offsetInCU: 0x18E27, offset: 0x18E27, size: 0x8, addend: 0x0, symName: __ZNKSt3__116reverse_iteratorINS0_IP11InstructionEEEdeB7v160006Ev, symObjAddr: 0xDF40, symBinAddr: 0x100012290, symSize: 0x40 }
  - { offsetInCU: 0x18E5B, offset: 0x18E5B, size: 0x8, addend: 0x0, symName: __ZNSt3__116reverse_iteratorIP11InstructionEmmB7v160006Ev, symObjAddr: 0xDF80, symBinAddr: 0x1000122D0, symSize: 0x20 }
  - { offsetInCU: 0x18E81, offset: 0x18E81, size: 0x8, addend: 0x0, symName: __ZNSt3__116reverse_iteratorINS0_IP11InstructionEEEC2B7v160006ES3_, symObjAddr: 0xDFA0, symBinAddr: 0x1000122F0, symSize: 0x40 }
  - { offsetInCU: 0x18EB9, offset: 0x18EB9, size: 0x8, addend: 0x0, symName: __ZNSt3__114__split_bufferI11InstructionRNS_9allocatorIS1_EEED2Ev, symObjAddr: 0xDFE0, symBinAddr: 0x100012330, symSize: 0x60 }
  - { offsetInCU: 0x18EE5, offset: 0x18EE5, size: 0x8, addend: 0x0, symName: __ZNSt3__114__split_bufferI11InstructionRNS_9allocatorIS1_EEE5clearB7v160006Ev, symObjAddr: 0xE040, symBinAddr: 0x100012390, symSize: 0x20 }
  - { offsetInCU: 0x18F0B, offset: 0x18F0B, size: 0x8, addend: 0x0, symName: __ZNKSt3__114__split_bufferI11InstructionRNS_9allocatorIS1_EEE8capacityB7v160006Ev, symObjAddr: 0xE060, symBinAddr: 0x1000123B0, symSize: 0x30 }
  - { offsetInCU: 0x18F31, offset: 0x18F31, size: 0x8, addend: 0x0, symName: __ZNSt3__114__split_bufferI11InstructionRNS_9allocatorIS1_EEE17__destruct_at_endB7v160006EPS1_, symObjAddr: 0xE090, symBinAddr: 0x1000123E0, symSize: 0x30 }
  - { offsetInCU: 0x18F65, offset: 0x18F65, size: 0x8, addend: 0x0, symName: __ZNSt3__114__split_bufferI11InstructionRNS_9allocatorIS1_EEE17__destruct_at_endB7v160006EPS1_NS_17integral_constantIbLb0EEE, symObjAddr: 0xE0C0, symBinAddr: 0x100012410, symSize: 0x80 }
  - { offsetInCU: 0x18FA5, offset: 0x18FA5, size: 0x8, addend: 0x0, symName: __ZNKSt3__114__split_bufferI11InstructionRNS_9allocatorIS1_EEE9__end_capB7v160006Ev, symObjAddr: 0xE140, symBinAddr: 0x100012490, symSize: 0x20 }
  - { offsetInCU: 0x18FCB, offset: 0x18FCB, size: 0x8, addend: 0x0, symName: __ZNKSt3__117__compressed_pairIP11InstructionRNS_9allocatorIS1_EEE5firstB7v160006Ev, symObjAddr: 0xE160, symBinAddr: 0x1000124B0, symSize: 0x1B }
  - { offsetInCU: 0x3F, offset: 0x1925F, size: 0x8, addend: 0x0, symName: _globalTime, symObjAddr: 0x29690, symBinAddr: 0x100018000, symSize: 0x0 }
  - { offsetInCU: 0x5C, offset: 0x1927C, size: 0x8, addend: 0x0, symName: _terminatedProcess, symObjAddr: 0x29694, symBinAddr: 0x100018004, symSize: 0x0 }
  - { offsetInCU: 0x72, offset: 0x19292, size: 0x8, addend: 0x0, symName: _programIndexCounter, symObjAddr: 0x29698, symBinAddr: 0x100018008, symSize: 0x0 }
  - { offsetInCU: 0x88, offset: 0x192A8, size: 0x8, addend: 0x0, symName: _PcbTable, symObjAddr: 0x296A0, symBinAddr: 0x100018010, symSize: 0x0 }
  - { offsetInCU: 0x4EEF, offset: 0x1E10F, size: 0x8, addend: 0x0, symName: __ZNSt3__1rsB7v160006IcNS_11char_traitsIcEEEERNS_13basic_istreamIT_T0_EES7_RS4_, symObjAddr: 0x310, symBinAddr: 0x100012660, symSize: 0x180 }
  - { offsetInCU: 0x56FA, offset: 0x1E91A, size: 0x8, addend: 0x0, symName: _cpu, symObjAddr: 0x29B00, symBinAddr: 0x100018470, symSize: 0x0 }
  - { offsetInCU: 0x5760, offset: 0x1E980, size: 0x8, addend: 0x0, symName: _readyState, symObjAddr: 0x29B20, symBinAddr: 0x100018490, symSize: 0x0 }
  - { offsetInCU: 0x581F, offset: 0x1EA3F, size: 0x8, addend: 0x0, symName: _blockedState, symObjAddr: 0x29BE0, symBinAddr: 0x100018550, symSize: 0x0 }
  - { offsetInCU: 0x5835, offset: 0x1EA55, size: 0x8, addend: 0x0, symName: _runningState, symObjAddr: 0x29C10, symBinAddr: 0x100018580, symSize: 0x0 }
  - { offsetInCU: 0x77F6, offset: 0x20A16, size: 0x8, addend: 0x0, symName: _main, symObjAddr: 0xD0, symBinAddr: 0x1000124D0, symSize: 0x190 }
...
